(lp1
(lp2
S'7061'
p3
aS'7058'
p4
aa(lp5
S'5508'
p6
aS'5507'
p7
aa(lp8
S'5514'
p9
ag7
aa(lp10
S'6027'
p11
aS'6025'
p12
aa(lp13
S'6164'
p14
aS'6161'
p15
aa(lp16
S'6166'
p17
aS'6158'
p18
aa(lp19
S'5295'
p20
aS'5287'
p21
aa(lp22
S'5300'
p23
ag21
aa(lp24
S'6046'
p25
aS'6043'
p26
aa(lp27
S'6182'
p28
aS'6181'
p29
aa(lp30
S'6183'
p31
ag29
aa(lp32
S'6901'
p33
ag29
aa(lp34
S'5202'
p35
aS'5199'
p36
aa(lp37
S'8741'
p38
aS'8734'
p39
aa(lp40
S'8809'
p41
ag39
aa(lp42
S'8997'
p43
aS'8967'
p44
aa(lp45
S'8748'
p46
aS'8747'
p47
aa(lp48
S'8800'
p49
ag47
aa(lp50
S'5841'
p51
aS'5840'
p52
aa(lp53
S'5845'
p54
ag52
aa(lp55
S'617'
p56
aS'570'
p57
aa(lp58
S'1144'
p59
aS'1143'
p60
aa(lp61
S'1150'
p62
ag60
aa(lp63
S'1164'
p64
ag60
aa(lp65
S'1166'
p66
ag60
aa(lp67
S'1167'
p68
ag60
aa(lp69
S'1168'
p70
ag60
aa(lp71
S'1157'
p72
aS'1156'
p73
aa(lp74
S'1158'
p75
ag73
aa(lp76
S'7265'
p77
aS'6942'
p78
aa(lp79
S'7267'
p80
ag78
aa(lp81
S'6908'
p82
aS'6709'
p83
aa(lp84
S'7052'
p85
aS'7044'
p86
aa(lp87
S'6818'
p88
aS'6808'
p89
aa(lp90
S'7140'
p91
aS'6919'
p92
aa(lp93
S'7368'
p94
aS'6970'
p95
aa(lp96
S'8214'
p97
aS'7421'
p98
aa(lp99
S'8560'
p100
aS'8559'
p101
aa(lp102
S'8630'
p103
aS'8614'
p104
aa(lp105
S'8632'
p106
ag104
aa(lp107
S'8639'
p108
ag104
aa(lp109
S'8554'
p110
aS'8539'
p111
aa(lp112
S'8556'
p113
ag111
aa(lp114
S'8568'
p115
ag111
aa(lp116
S'8600'
p117
aS'8569'
p118
aa(lp119
S'1929'
p120
aS'1927'
p121
aa(lp122
S'1930'
p123
ag121
aa(lp124
S'1932'
p125
ag121
aa(lp126
S'1937'
p127
ag121
aa(lp128
S'1940'
p129
ag121
aa(lp130
S'1947'
p131
ag121
aa(lp132
S'2279'
p133
ag121
aa(lp134
S'2282'
p135
ag121
aa(lp136
S'2284'
p137
ag121
aa(lp138
S'2287'
p139
ag121
aa(lp140
S'6229'
p141
aS'6228'
p142
aa(lp143
S'6069'
p144
aS'6066'
p145
aa(lp146
S'6064'
p147
aS'6063'
p148
aa(lp149
S'6065'
p150
ag148
aa(lp151
S'6067'
p152
ag148
aa(lp153
S'6219'
p154
aS'6218'
p155
aa(lp156
S'7289'
p157
aS'6946'
p158
aa(lp159
S'7122'
p160
aS'7121'
p161
aa(lp162
S'5205'
p163
aS'446'
p164
aa(lp165
S'6434'
p166
ag164
aa(lp167
S'7096'
p168
ag164
aa(lp169
S'7099'
p170
ag164
aa(lp171
S'6839'
p172
aS'6837'
p173
aa(lp174
S'6841'
p175
ag173
aa(lp176
S'6849'
p177
ag173
aa(lp178
S'6850'
p179
ag173
aa(lp180
S'6851'
p181
ag173
aa(lp182
S'6852'
p183
ag173
aa(lp184
S'6853'
p185
ag173
aa(lp186
S'7410'
p187
aS'6982'
p188
aa(lp189
S'6305'
p190
aS'6304'
p191
aa(lp192
S'6307'
p193
ag191
aa(lp194
S'6315'
p195
ag191
aa(lp196
S'6361'
p197
ag191
aa(lp198
S'6362'
p199
ag191
aa(lp200
S'6380'
p201
ag191
aa(lp202
S'6386'
p203
ag191
aa(lp204
S'6387'
p205
ag191
aa(lp206
S'6299'
p207
aS'6293'
p208
aa(lp209
S'6356'
p210
ag208
aa(lp211
S'2314'
p212
aS'2310'
p213
aa(lp214
S'2297'
p215
aS'2296'
p216
aa(lp217
S'2298'
p218
ag216
aa(lp219
S'2299'
p220
ag216
aa(lp221
S'2301'
p222
ag216
aa(lp223
S'2303'
p224
ag216
aa(lp225
S'2304'
p226
ag216
aa(lp227
S'2305'
p228
ag216
aa(lp229
S'2306'
p230
ag216
aa(lp231
S'2309'
p232
ag216
aa(lp233
S'2312'
p234
ag216
aa(lp235
S'2313'
p236
ag216
aa(lp237
S'2315'
p238
ag216
aa(lp239
S'6775'
p240
aS'6771'
p241
aa(lp242
S'6777'
p243
ag241
aa(lp244
S'6779'
p245
ag241
aa(lp246
S'6784'
p247
ag241
aa(lp248
S'6786'
p249
ag241
aa(lp250
S'6789'
p251
ag241
aa(lp252
S'6920'
p253
ag241
aa(lp254
S'6921'
p255
ag241
aa(lp256
S'6317'
p257
aS'6296'
p258
aa(lp259
S'6320'
p260
ag258
aa(lp261
S'6321'
p262
ag258
aa(lp263
S'6323'
p264
ag258
aa(lp265
S'6327'
p266
ag258
aa(lp267
S'6328'
p268
ag258
aa(lp269
S'6340'
p270
ag258
aa(lp271
S'6349'
p272
ag258
aa(lp273
S'6354'
p274
ag258
aa(lp275
S'6365'
p276
ag258
aa(lp277
S'6388'
p278
ag258
aa(lp279
S'1125'
p280
aS'1121'
p281
aa(lp282
S'1129'
p283
ag281
aa(lp284
S'1133'
p285
ag281
aa(lp286
S'1375'
p287
ag281
aa(lp288
S'1377'
p289
ag281
aa(lp290
S'7373'
p291
aS'6972'
p292
aa(lp293
S'7375'
p294
ag292
aa(lp295
S'8660'
p296
aS'8656'
p297
aa(lp298
S'8807'
p299
aS'8739'
p300
aa(lp301
S'2319'
p302
aS'2318'
p303
aa(lp304
S'2320'
p305
ag303
aa(lp306
S'2321'
p307
ag303
aa(lp308
S'2322'
p309
ag303
aa(lp310
S'2324'
p311
ag303
aa(lp312
S'2326'
p313
ag303
aa(lp314
S'2330'
p315
ag303
aa(lp316
S'2332'
p317
ag303
aa(lp318
S'2338'
p319
ag303
aa(lp320
S'2340'
p321
ag303
aa(lp322
S'2346'
p323
ag303
aa(lp324
S'2347'
p325
ag303
aa(lp326
S'2348'
p327
ag303
aa(lp328
S'2350'
p329
ag303
aa(lp330
S'2352'
p331
ag303
aa(lp332
S'2354'
p333
ag303
aa(lp334
S'2355'
p335
ag303
aa(lp336
S'2356'
p337
ag303
aa(lp338
S'2357'
p339
ag303
aa(lp340
S'2358'
p341
ag303
aa(lp342
S'2359'
p343
ag303
aa(lp344
S'2360'
p345
ag303
aa(lp346
S'2362'
p347
ag303
aa(lp348
S'2363'
p349
ag303
aa(lp350
S'2364'
p351
ag303
aa(lp352
S'7006'
p353
aS'6899'
p354
aa(lp355
S'7482'
p356
aS'7481'
p357
aa(lp358
S'5326'
p359
aS'5324'
p360
aa(lp361
S'5329'
p362
ag360
aa(lp363
S'5564'
p364
aS'5562'
p365
aa(lp366
S'5565'
p367
ag365
aa(lp368
S'5566'
p369
ag365
aa(lp370
S'5567'
p371
ag365
aa(lp372
S'5703'
p373
ag365
aa(lp374
S'7154'
p375
aS'5241'
p376
aa(lp377
S'7155'
p378
ag376
aa(lp379
S'7458'
p380
ag376
aa(lp381
S'1716'
p382
aS'1715'
p383
aa(lp384
S'9000'
p385
aS'8985'
p386
aa(lp387
S'1783'
p388
aS'1782'
p389
aa(lp390
S'1724'
p391
aS'1723'
p392
aa(lp393
S'1714'
p394
aS'1713'
p395
aa(lp396
S'1717'
p397
ag395
aa(lp398
S'1733'
p399
aS'1732'
p400
aa(lp401
S'1735'
p402
ag400
aa(lp403
S'1703'
p404
aS'1702'
p405
aa(lp406
S'1704'
p407
ag405
aa(lp408
S'1705'
p409
ag405
aa(lp410
S'1706'
p411
ag405
aa(lp412
S'1707'
p413
ag405
aa(lp414
S'1708'
p415
ag405
aa(lp416
S'1709'
p417
ag405
aa(lp418
S'1711'
p419
ag405
aa(lp420
S'1712'
p421
ag405
aa(lp422
S'1739'
p423
ag405
aa(lp424
S'1741'
p425
ag405
aa(lp426
S'1754'
p427
ag405
aa(lp428
S'1755'
p429
ag405
aa(lp430
S'1756'
p431
ag405
aa(lp432
S'1760'
p433
ag405
aa(lp434
S'1761'
p435
ag405
aa(lp436
S'1763'
p437
ag405
aa(lp438
S'1764'
p439
ag405
aa(lp440
S'1765'
p441
ag405
aa(lp442
S'1769'
p443
ag405
aa(lp444
S'1772'
p445
ag405
aa(lp446
S'1774'
p447
ag405
aa(lp448
S'1775'
p449
ag405
aa(lp450
S'1776'
p451
ag405
aa(lp452
S'1777'
p453
ag405
aa(lp454
S'1778'
p455
ag405
aa(lp456
S'1779'
p457
ag405
aa(lp458
S'1781'
p459
ag405
aa(lp460
S'1784'
p461
ag405
aa(lp462
S'1785'
p463
ag405
aa(lp464
S'1786'
p465
ag405
aa(lp466
S'1788'
p467
ag405
aa(lp468
S'1793'
p469
ag405
aa(lp470
S'1797'
p471
ag405
aa(lp472
S'1939'
p473
ag405
aa(lp474
S'1942'
p475
ag405
aa(lp476
S'1943'
p477
ag405
aa(lp478
S'2285'
p479
ag405
aa(lp480
S'2286'
p481
ag405
aa(lp482
S'2369'
p483
ag405
aa(lp484
S'2370'
p485
ag405
aa(lp486
S'2371'
p487
ag405
aa(lp488
S'2372'
p489
ag405
aa(lp490
S'2373'
p491
ag405
aa(lp492
S'470'
p493
ag405
aa(lp494
S'471'
p495
ag405
aa(lp496
S'472'
p497
ag405
aa(lp498
S'475'
p499
ag405
aa(lp500
S'476'
p501
ag405
aa(lp502
S'478'
p503
ag405
aa(lp504
S'480'
p505
ag405
aa(lp506
S'481'
p507
ag405
aa(lp508
S'484'
p509
ag405
aa(lp510
S'485'
p511
ag405
aa(lp512
S'486'
p513
ag405
aa(lp514
S'492'
p515
ag405
aa(lp516
S'494'
p517
ag405
aa(lp518
S'500'
p519
ag405
aa(lp520
S'501'
p521
ag405
aa(lp522
S'502'
p523
ag405
aa(lp524
S'504'
p525
ag405
aa(lp526
S'506'
p527
ag405
aa(lp528
S'508'
p529
ag405
aa(lp530
S'509'
p531
ag405
aa(lp532
S'511'
p533
ag405
aa(lp534
S'512'
p535
ag405
aa(lp536
S'514'
p537
ag405
aa(lp538
S'515'
p539
ag405
aa(lp540
S'517'
p541
ag405
aa(lp542
S'518'
p543
ag405
aa(lp544
S'520'
p545
ag405
aa(lp546
S'522'
p547
ag405
aa(lp548
S'523'
p549
ag405
aa(lp550
S'524'
p551
ag405
aa(lp552
S'525'
p553
ag405
aa(lp554
S'526'
p555
ag405
aa(lp556
S'528'
p557
ag405
aa(lp558
S'529'
p559
ag405
aa(lp560
S'530'
p561
ag405
aa(lp562
S'531'
p563
ag405
aa(lp564
S'534'
p565
ag405
aa(lp566
S'536'
p567
ag405
aa(lp568
S'537'
p569
ag405
aa(lp570
S'538'
p571
ag405
aa(lp572
S'539'
p573
ag405
aa(lp574
S'540'
p575
ag405
aa(lp576
S'545'
p577
ag405
aa(lp578
S'546'
p579
ag405
aa(lp580
S'547'
p581
ag405
aa(lp582
S'550'
p583
ag405
aa(lp584
S'552'
p585
ag405
aa(lp586
S'553'
p587
ag405
aa(lp588
S'554'
p589
ag405
aa(lp590
S'555'
p591
ag405
aa(lp592
S'556'
p593
ag405
aa(lp594
S'557'
p595
ag405
aa(lp596
S'558'
p597
ag405
aa(lp598
S'560'
p599
ag405
aa(lp600
S'561'
p601
ag405
aa(lp602
S'562'
p603
ag405
aa(lp604
S'564'
p605
ag405
aa(lp606
S'566'
p607
ag405
aa(lp608
S'567'
p609
ag405
aa(lp610
S'569'
p611
ag405
aa(lp612
S'628'
p613
ag405
aa(lp614
S'6802'
p615
ag405
aa(lp616
S'6804'
p617
ag405
aa(lp618
S'6805'
p619
ag405
aa(lp620
S'6806'
p621
ag405
aa(lp622
S'6809'
p623
ag405
aa(lp624
S'6814'
p625
ag405
aa(lp626
S'6822'
p627
ag405
aa(lp628
S'6927'
p629
ag405
aa(lp630
S'694'
p631
ag405
aa(lp632
S'7033'
p633
ag405
aa(lp634
S'7160'
p635
ag405
aa(lp636
S'7358'
p637
ag405
aa(lp638
S'7360'
p639
ag405
aa(lp640
S'7361'
p641
ag405
aa(lp642
S'7362'
p643
ag405
aa(lp644
S'7363'
p645
ag405
aa(lp646
S'7377'
p647
ag405
aa(lp648
S'742'
p649
ag405
aa(lp650
S'7526'
p651
ag405
aa(lp652
S'8431'
p653
ag405
aa(lp654
S'8432'
p655
ag405
aa(lp656
S'8433'
p657
ag405
aa(lp658
S'8434'
p659
ag405
aa(lp660
S'8435'
p661
ag405
aa(lp662
S'8436'
p663
ag405
aa(lp664
S'8437'
p665
ag405
aa(lp666
S'8438'
p667
ag405
aa(lp668
S'8439'
p669
ag405
aa(lp670
S'8441'
p671
ag405
aa(lp672
S'8442'
p673
ag405
aa(lp674
S'8444'
p675
ag405
aa(lp676
S'8445'
p677
ag405
aa(lp678
S'8446'
p679
ag405
aa(lp680
S'8447'
p681
ag405
aa(lp682
S'8449'
p683
ag405
aa(lp684
S'8451'
p685
ag405
aa(lp686
S'8452'
p687
ag405
aa(lp688
S'8453'
p689
ag405
aa(lp690
S'8454'
p691
ag405
aa(lp692
S'8456'
p693
ag405
aa(lp694
S'8457'
p695
ag405
aa(lp696
S'8458'
p697
ag405
aa(lp698
S'8459'
p699
ag405
aa(lp700
S'8460'
p701
ag405
aa(lp702
S'8461'
p703
ag405
aa(lp704
S'8462'
p705
ag405
aa(lp706
S'8464'
p707
ag405
aa(lp708
S'8466'
p709
ag405
aa(lp710
S'8467'
p711
ag405
aa(lp712
S'8468'
p713
ag405
aa(lp714
S'8469'
p715
ag405
aa(lp716
S'8470'
p717
ag405
aa(lp718
S'8471'
p719
ag405
aa(lp720
S'8473'
p721
ag405
aa(lp722
S'8474'
p723
ag405
aa(lp724
S'8475'
p725
ag405
aa(lp726
S'8476'
p727
ag405
aa(lp728
S'8477'
p729
ag405
aa(lp730
S'8478'
p731
ag405
aa(lp732
S'8479'
p733
ag405
aa(lp734
S'8482'
p735
ag405
aa(lp736
S'8483'
p737
ag405
aa(lp738
S'8485'
p739
ag405
aa(lp740
S'8486'
p741
ag405
aa(lp742
S'8487'
p743
ag405
aa(lp744
S'8488'
p745
ag405
aa(lp746
S'8489'
p747
ag405
aa(lp748
S'8490'
p749
ag405
aa(lp750
S'8491'
p751
ag405
aa(lp752
S'8492'
p753
ag405
aa(lp754
S'8493'
p755
ag405
aa(lp756
S'8494'
p757
ag405
aa(lp758
S'8496'
p759
ag405
aa(lp760
S'8498'
p761
ag405
aa(lp762
S'8499'
p763
ag405
aa(lp764
S'8501'
p765
ag405
aa(lp766
S'8503'
p767
ag405
aa(lp768
S'8504'
p769
ag405
aa(lp770
S'8505'
p771
ag405
aa(lp772
S'8506'
p773
ag405
aa(lp774
S'8507'
p775
ag405
aa(lp776
S'8508'
p777
ag405
aa(lp778
S'8510'
p779
ag405
aa(lp780
S'8511'
p781
ag405
aa(lp782
S'8512'
p783
ag405
aa(lp784
S'8513'
p785
ag405
aa(lp786
S'8515'
p787
ag405
aa(lp788
S'8516'
p789
ag405
aa(lp790
S'8517'
p791
ag405
aa(lp792
S'8518'
p793
ag405
aa(lp794
S'8519'
p795
ag405
aa(lp796
S'8520'
p797
ag405
aa(lp798
S'8522'
p799
ag405
aa(lp800
S'8523'
p801
ag405
aa(lp802
S'8525'
p803
ag405
aa(lp804
S'8526'
p805
ag405
aa(lp806
S'8527'
p807
ag405
aa(lp808
S'8548'
p809
ag405
aa(lp810
S'8562'
p811
ag405
aa(lp812
S'8661'
p813
ag405
aa(lp814
S'8677'
p815
ag405
aa(lp816
S'8679'
p817
ag405
aa(lp818
S'8680'
p819
ag405
aa(lp820
S'8683'
p821
ag405
aa(lp822
S'8696'
p823
ag405
aa(lp824
S'8697'
p825
ag405
aa(lp826
S'8699'
p827
ag405
aa(lp828
S'8709'
p829
ag405
aa(lp830
S'8813'
p831
ag405
aa(lp832
S'8876'
p833
ag405
aa(lp834
S'8956'
p835
ag405
aa(lp836
S'8960'
p837
ag405
aa(lp838
S'8984'
p839
ag405
aa(lp840
S'8988'
p841
ag405
aa(lp842
S'8993'
p843
ag405
aa(lp844
S'9003'
p845
ag405
aa(lp846
S'9010'
p847
ag405
aa(lp848
S'9013'
p849
ag405
aa(lp850
S'9014'
p851
ag405
aa(lp852
S'9015'
p853
ag405
aa(lp854
S'9017'
p855
ag405
aa(lp856
S'9018'
p857
ag405
aa(lp858
S'9019'
p859
ag405
aa(lp860
S'9020'
p861
ag405
aa(lp862
S'9024'
p863
ag405
aa(lp864
S'9029'
p865
ag405
aa(lp866
S'9031'
p867
ag405
aa(lp868
S'9032'
p869
ag405
aa(lp870
S'9035'
p871
ag405
aa(lp872
S'9039'
p873
ag405
aa(lp874
S'9040'
p875
ag405
aa(lp876
S'9043'
p877
ag405
aa(lp878
S'9044'
p879
ag405
aa(lp880
S'9046'
p881
ag405
aa(lp882
S'9047'
p883
ag405
aa(lp884
S'9049'
p885
ag405
aa(lp886
S'9050'
p887
ag405
aa(lp888
S'9054'
p889
ag405
aa(lp890
S'9055'
p891
ag405
aa(lp892
S'9056'
p893
ag405
aa(lp894
S'1747'
p895
aS'1746'
p896
aa(lp897
S'8989'
p898
aS'8978'
p899
aa(lp900
S'1745'
p901
aS'1737'
p902
aa(lp903
S'1961'
p904
aS'1956'
p905
aa(lp906
S'1989'
p907
aS'1976'
p908
aa(lp909
S'1969'
p910
aS'1962'
p911
aa(lp912
S'8598'
p913
aS'8538'
p914
aa(lp915
S'7149'
p916
aS'6922'
p917
aa(lp918
S'6452'
p919
aS'6443'
p920
aa(lp921
S'2294'
p922
aS'2291'
p923
aa(lp924
S'2295'
p925
ag923
aa(lp926
S'5880'
p927
aS'5879'
p928
aa(lp929
S'6414'
p930
ag928
aa(lp931
S'6909'
p932
ag928
aa(lp933
S'7012'
p934
ag928
aa(lp935
S'7018'
p936
ag928
aa(lp937
S'7082'
p938
ag928
aa(lp939
S'7083'
p940
ag928
aa(lp941
S'7084'
p942
ag928
aa(lp943
S'7085'
p944
ag928
aa(lp945
S'7086'
p946
ag928
aa(lp947
S'7088'
p948
ag928
aa(lp949
S'7089'
p950
ag928
aa(lp951
S'7090'
p952
ag928
aa(lp953
S'7091'
p954
ag928
aa(lp955
S'7329'
p956
ag928
aa(lp957
S'5951'
p958
aS'5909'
p959
aa(lp960
S'5957'
p961
ag959
aa(lp962
S'5244'
p963
aS'5224'
p964
aa(lp965
S'6430'
p966
aS'6419'
p967
aa(lp968
S'6432'
p969
ag967
aa(lp970
S'6433'
p971
ag967
aa(lp972
S'6439'
p973
ag967
aa(lp974
S'5971'
p975
aS'5918'
p976
aa(lp977
S'5973'
p978
ag976
aa(lp979
S'5974'
p980
ag976
aa(lp981
S'6969'
p982
aS'6968'
p983
aa(lp984
S'7318'
p985
aS'6916'
p986
aa(lp987
S'4967'
p988
aS'439'
p989
aa(lp990
S'5850'
p991
aS'5844'
p992
aa(lp993
S'7112'
p994
aS'6915'
p995
aa(lp996
S'7322'
p997
aS'7022'
p998
aa(lp999
S'5954'
p1000
aS'5897'
p1001
aa(lp1002
S'5976'
p1003
aS'5935'
p1004
aa(lp1005
S'6944'
p1006
aS'5272'
p1007
aa(lp1008
S'1727'
p1009
aS'1725'
p1010
aa(lp1011
S'1731'
p1012
ag1010
aa(lp1013
S'7332'
p1014
aS'6926'
p1015
aa(lp1016
S'585'
p1017
ag57
aa(lp1018
S'450'
p1019
aS'444'
p1020
aa(lp1021
S'5506'
p1022
ag7
aa(lp1023
S'5515'
p1024
ag7
aa(lp1025
S'5516'
p1026
ag7
aa(lp1027
S'5517'
p1028
ag7
aa(lp1029
S'5518'
p1030
ag7
aa(lp1031
S'6028'
p1032
ag12
aa(lp1033
S'6162'
p1034
ag12
aa(lp1035
S'6154'
p1036
aS'6167'
p1037
aa(lp1038
S'6165'
p1039
ag18
aa(lp1040
S'6159'
p1041
ag18
aa(lp1042
S'6155'
p1043
aS'6160'
p1044
aa(lp1045
S'6156'
p1046
aS'6157'
p1047
aa(lp1048
S'5519'
p1049
ag21
aa(lp1050
S'5526'
p1051
ag21
aa(lp1052
S'5286'
p1053
ag21
aa(lp1054
S'5294'
p1055
ag21
aa(lp1056
S'5296'
p1057
ag21
aa(lp1058
S'5297'
p1059
ag21
aa(lp1060
S'5299'
p1061
ag21
aa(lp1062
S'5521'
p1063
ag21
aa(lp1064
S'5522'
p1065
ag21
aa(lp1066
S'6045'
p1067
ag26
aa(lp1068
S'6247'
p1069
aS'6225'
p1070
aa(lp1071
S'6248'
p1072
ag1070
aa(lp1073
S'6900'
p1074
ag29
aa(lp1075
S'5834'
p1076
aS'5833'
p1077
aa(lp1078
S'5200'
p1079
ag36
aa(lp1080
S'8954'
p1081
aS'8990'
p1082
aa(lp1083
S'9038'
p1084
aS'9027'
p1085
aa(lp1086
S'8838'
p1087
aS'8836'
p1088
aa(lp1089
S'8751'
p1090
aS'8825'
p1091
aa(lp1092
S'8904'
p1093
aS'8910'
p1094
aa(lp1095
S'8755'
p1096
ag39
aa(lp1097
S'8946'
p1098
aS'8930'
p1099
aa(lp1100
S'8999'
p1101
aS'8968'
p1102
aa(lp1103
S'1067'
p1104
aS'1372'
p1105
aa(lp1106
S'1068'
p1107
ag1105
aa(lp1108
S'7134'
p1109
aS'6981'
p1110
aa(lp1111
S'6260'
p1112
aS'6256'
p1113
aa(lp1114
S'6254'
p1115
aS'6249'
p1116
aa(lp1117
S'6265'
p1118
ag1116
aa(lp1119
S'6283'
p1120
aS'7516'
p1121
aa(lp1122
S'6269'
p1123
aS'6263'
p1124
aa(lp1125
S'6277'
p1126
ag1124
aa(lp1127
S'6278'
p1128
ag1124
aa(lp1129
S'6285'
p1130
ag1124
aa(lp1131
S'6415'
p1132
ag1124
aa(lp1133
S'5849'
p1134
ag52
aa(lp1135
S'589'
p1136
ag57
aa(lp1137
S'584'
p1138
ag57
aa(lp1139
S'586'
p1140
ag57
aa(lp1141
S'594'
p1142
ag57
aa(lp1143
S'596'
p1144
ag57
aa(lp1145
S'600'
p1146
ag57
aa(lp1147
S'614'
p1148
ag57
aa(lp1149
S'6032'
p1150
aS'6220'
p1151
aa(lp1152
S'729'
p1153
aS'714'
p1154
aa(lp1155
S'1152'
p1156
ag60
aa(lp1157
S'1155'
p1158
ag60
aa(lp1159
S'1159'
p1160
ag73
aa(lp1161
S'6708'
p1162
ag83
aa(lp1163
S'1035'
p1164
aS'1043'
p1165
aa(lp1166
S'1019'
p1167
ag1165
aa(lp1168
S'1022'
p1169
ag1165
aa(lp1170
S'1027'
p1171
ag1165
aa(lp1172
S'1029'
p1173
ag1165
aa(lp1174
S'1036'
p1175
ag1165
aa(lp1176
S'1041'
p1177
ag1165
aa(lp1178
S'1042'
p1179
ag1165
aa(lp1180
S'1044'
p1181
ag1165
aa(lp1182
S'1045'
p1183
ag1165
aa(lp1184
S'1026'
p1185
ag1165
aa(lp1186
S'1002'
p1187
aS'1001'
p1188
aa(lp1189
S'1003'
p1190
ag1188
aa(lp1191
S'6048'
p1192
aS'6044'
p1193
aa(lp1194
S'6050'
p1195
ag1193
aa(lp1196
S'6052'
p1197
ag1193
aa(lp1198
S'6055'
p1199
ag1193
aa(lp1200
S'6056'
p1201
ag1193
aa(lp1202
S'6057'
p1203
ag1193
aa(lp1204
S'6058'
p1205
ag1193
aa(lp1206
S'6059'
p1207
ag1193
aa(lp1208
S'6060'
p1209
ag1193
aa(lp1210
S'6062'
p1211
ag1193
aa(lp1212
S'6175'
p1213
ag1193
aa(lp1214
S'6176'
p1215
ag1193
aa(lp1216
S'6179'
p1217
ag1193
aa(lp1218
S'6053'
p1219
ag1193
aa(lp1220
S'6201'
p1221
aS'6196'
p1222
aa(lp1223
S'6205'
p1224
ag1222
aa(lp1225
S'6206'
p1226
ag1222
aa(lp1227
S'7367'
p1228
ag95
aa(lp1229
S'7366'
p1230
ag95
aa(lp1231
S'7023'
p1232
aS'7021'
p1233
aa(lp1234
S'5591'
p1235
aS'5590'
p1236
aa(lp1237
S'5592'
p1238
ag1236
aa(lp1239
S'965'
p1240
aS'976'
p1241
aa(lp1242
S'6995'
p1243
aS'6898'
p1244
aa(lp1245
S'1376'
p1246
aS'1361'
p1247
aa(lp1248
S'8549'
p1249
aS'8545'
p1250
aa(lp1251
S'8623'
p1252
aS'8624'
p1253
aa(lp1254
S'8528'
p1255
aS'8567'
p1256
aa(lp1257
S'1934'
p1258
aS'1935'
p1259
aa(lp1260
S'1924'
p1261
ag121
aa(lp1262
S'1928'
p1263
ag121
aa(lp1264
S'1931'
p1265
ag121
aa(lp1266
S'6376'
p1267
ag191
aa(lp1268
S'6075'
p1269
aS'6074'
p1270
aa(lp1271
S'5851'
p1272
aS'5854'
p1273
aa(lp1274
S'5852'
p1275
ag1273
aa(lp1276
S'5853'
p1277
ag1273
aa(lp1278
S'5858'
p1279
ag1273
aa(lp1280
S'6187'
p1281
ag1273
aa(lp1282
S'6068'
p1283
ag145
aa(lp1284
S'6222'
p1285
aS'6173'
p1286
aa(lp1287
S'1796'
p1288
aS'1789'
p1289
aa(lp1290
S'6286'
p1291
aS'6289'
p1292
aa(lp1293
S'5255'
p1294
aS'5261'
p1295
aa(lp1296
S'5198'
p1297
ag1295
aa(lp1298
S'5380'
p1299
aS'5379'
p1300
aa(lp1301
S'7288'
p1302
ag158
aa(lp1303
S'7179'
p1304
ag161
aa(lp1305
S'6846'
p1306
ag173
aa(lp1307
S'7093'
p1308
aS'6929'
p1309
aa(lp1310
S'6300'
p1311
ag191
aa(lp1312
S'6302'
p1313
ag191
aa(lp1314
S'6303'
p1315
ag191
aa(lp1316
S'6306'
p1317
ag191
aa(lp1318
S'6308'
p1319
ag191
aa(lp1320
S'6309'
p1321
ag191
aa(lp1322
S'6316'
p1323
ag191
aa(lp1324
S'6332'
p1325
ag191
aa(lp1326
S'6343'
p1327
ag191
aa(lp1328
S'6351'
p1329
ag191
aa(lp1330
S'6367'
p1331
ag191
aa(lp1332
S'6371'
p1333
ag191
aa(lp1334
S'6373'
p1335
ag191
aa(lp1336
S'6377'
p1337
ag191
aa(lp1338
S'6378'
p1339
ag191
aa(lp1340
S'6379'
p1341
ag191
aa(lp1342
S'6381'
p1343
ag191
aa(lp1344
S'6383'
p1345
ag191
aa(lp1346
S'6410'
p1347
ag191
aa(lp1348
S'6408'
p1349
ag208
aa(lp1350
S'6292'
p1351
ag208
aa(lp1352
S'6298'
p1353
ag208
aa(lp1354
S'6301'
p1355
ag208
aa(lp1356
S'6312'
p1357
ag208
aa(lp1358
S'6329'
p1359
ag208
aa(lp1360
S'6331'
p1361
ag208
aa(lp1362
S'6333'
p1363
ag208
aa(lp1364
S'6334'
p1365
ag208
aa(lp1366
S'6337'
p1367
ag208
aa(lp1368
S'6338'
p1369
ag208
aa(lp1370
S'6341'
p1371
ag208
aa(lp1372
S'6345'
p1373
ag208
aa(lp1374
S'6346'
p1375
ag208
aa(lp1376
S'6348'
p1377
ag208
aa(lp1378
S'6353'
p1379
ag208
aa(lp1380
S'6355'
p1381
ag208
aa(lp1382
S'6360'
p1383
ag208
aa(lp1384
S'6363'
p1385
ag208
aa(lp1386
S'6366'
p1387
ag208
aa(lp1388
S'6369'
p1389
ag208
aa(lp1390
S'6370'
p1391
ag208
aa(lp1392
S'6399'
p1393
ag208
aa(lp1394
S'6409'
p1395
ag208
aa(lp1396
S'6350'
p1397
aS'6347'
p1398
aa(lp1399
S'6352'
p1400
ag1398
aa(lp1401
S'6372'
p1402
ag1398
aa(lp1403
S'6389'
p1404
ag1398
aa(lp1405
S'6391'
p1406
ag1398
aa(lp1407
S'6395'
p1408
ag1398
aa(lp1409
S'6400'
p1410
ag1398
aa(lp1411
S'6390'
p1412
aS'6407'
p1413
aa(lp1414
S'6406'
p1415
ag1413
aa(lp1416
S'2289'
p1417
aS'2288'
p1418
aa(lp1419
S'2290'
p1420
ag1418
aa(lp1421
S'6344'
p1422
ag258
aa(lp1423
S'6393'
p1424
ag258
aa(lp1425
S'1118'
p1426
ag281
aa(lp1427
S'1124'
p1428
ag281
aa(lp1429
S'1127'
p1430
ag281
aa(lp1431
S'1128'
p1432
ag281
aa(lp1433
S'1131'
p1434
ag281
aa(lp1435
S'5985'
p1436
aS'5984'
p1437
aa(lp1438
S'5986'
p1439
ag1437
aa(lp1440
S'7374'
p1441
ag292
aa(lp1442
S'8675'
p1443
aS'8659'
p1444
aa(lp1445
S'8684'
p1446
ag1444
aa(lp1447
S'8743'
p1448
aS'8801'
p1449
aa(lp1450
S'8744'
p1451
ag1449
aa(lp1452
S'2328'
p1453
ag303
aa(lp1454
S'5892'
p1455
aS'5913'
p1456
aa(lp1457
S'5912'
p1458
ag1456
aa(lp1459
S'5931'
p1460
ag1456
aa(lp1461
S'5535'
p1462
aS'5536'
p1463
aa(lp1464
S'5154'
p1465
aS'5153'
p1466
aa(lp1467
S'6911'
p1468
aS'7066'
p1469
aa(lp1470
S'5556'
p1471
ag365
aa(lp1472
S'7120'
p1473
aS'6910'
p1474
aa(lp1475
S'7118'
p1476
ag1474
aa(lp1477
S'7156'
p1478
aS'7025'
p1479
aa(lp1480
S'5120'
p1481
ag360
aa(lp1482
S'5328'
p1483
ag360
aa(lp1484
S'5336'
p1485
ag360
aa(lp1486
S'5321'
p1487
aS'5366'
p1488
aa(lp1489
S'5282'
p1490
aS'5281'
p1491
aa(lp1492
S'7059'
p1493
aS'6906'
p1494
aa(lp1495
S'5573'
p1496
ag365
aa(lp1497
S'5574'
p1498
ag365
aa(lp1499
S'5570'
p1500
aS'5279'
p1501
aa(lp1502
S'5313'
p1503
aS'5569'
p1504
aa(lp1505
S'5601'
p1506
ag1504
aa(lp1507
S'5839'
p1508
ag992
aa(lp1509
S'6817'
p1510
aS'6928'
p1511
aa(lp1512
S'8723'
p1513
aS'8720'
p1514
aa(lp1515
S'8448'
p1516
ag405
aa(lp1517
S'8465'
p1518
ag405
aa(lp1519
S'8514'
p1520
ag405
aa(lp1521
S'8700'
p1522
ag405
aa(lp1523
S'8980'
p1524
ag405
aa(lp1525
S'8981'
p1526
ag405
aa(lp1527
S'9028'
p1528
ag405
aa(lp1529
S'9030'
p1530
ag405
aa(lp1531
S'474'
p1532
ag405
aa(lp1533
S'479'
p1534
ag405
aa(lp1535
S'482'
p1536
ag405
aa(lp1537
S'487'
p1538
ag405
aa(lp1539
S'488'
p1540
ag405
aa(lp1541
S'489'
p1542
ag405
aa(lp1543
S'490'
p1544
ag405
aa(lp1545
S'493'
p1546
ag405
aa(lp1547
S'497'
p1548
ag405
aa(lp1549
S'503'
p1550
ag405
aa(lp1551
S'505'
p1552
ag405
aa(lp1553
S'507'
p1554
ag405
aa(lp1555
S'521'
p1556
ag405
aa(lp1557
S'542'
p1558
ag405
aa(lp1559
S'535'
p1560
ag405
aa(lp1561
S'541'
p1562
ag405
aa(lp1563
S'543'
p1564
ag405
aa(lp1565
S'559'
p1566
ag405
aa(lp1567
S'644'
p1568
ag405
aa(lp1569
S'645'
p1570
ag405
aa(lp1571
S'647'
p1572
ag405
aa(lp1573
S'649'
p1574
ag405
aa(lp1575
S'650'
p1576
ag405
aa(lp1577
S'651'
p1578
ag405
aa(lp1579
S'653'
p1580
ag405
aa(lp1581
S'654'
p1582
ag405
aa(lp1583
S'655'
p1584
ag405
aa(lp1585
S'656'
p1586
ag405
aa(lp1587
S'657'
p1588
ag405
aa(lp1589
S'659'
p1590
ag405
aa(lp1591
S'661'
p1592
ag405
aa(lp1593
S'662'
p1594
ag405
aa(lp1595
S'666'
p1596
ag405
aa(lp1597
S'669'
p1598
ag405
aa(lp1599
S'670'
p1600
ag405
aa(lp1601
S'672'
p1602
ag405
aa(lp1603
S'673'
p1604
ag405
aa(lp1605
S'674'
p1606
ag405
aa(lp1607
S'676'
p1608
ag405
aa(lp1609
S'677'
p1610
ag405
aa(lp1611
S'678'
p1612
ag405
aa(lp1613
S'679'
p1614
ag405
aa(lp1615
S'680'
p1616
ag405
aa(lp1617
S'681'
p1618
ag405
aa(lp1619
S'683'
p1620
ag405
aa(lp1621
S'684'
p1622
ag405
aa(lp1623
S'686'
p1624
ag405
aa(lp1625
S'687'
p1626
ag405
aa(lp1627
S'688'
p1628
ag405
aa(lp1629
S'689'
p1630
ag405
aa(lp1631
S'690'
p1632
ag405
aa(lp1633
S'692'
p1634
ag405
aa(lp1635
S'695'
p1636
ag405
aa(lp1637
S'696'
p1638
ag405
aa(lp1639
S'697'
p1640
ag405
aa(lp1641
S'698'
p1642
ag405
aa(lp1643
S'699'
p1644
ag405
aa(lp1645
S'700'
p1646
ag405
aa(lp1647
S'702'
p1648
ag405
aa(lp1649
S'704'
p1650
ag405
aa(lp1651
S'705'
p1652
ag405
aa(lp1653
S'706'
p1654
ag405
aa(lp1655
S'707'
p1656
ag405
aa(lp1657
S'708'
p1658
ag405
aa(lp1659
S'709'
p1660
ag405
aa(lp1661
S'712'
p1662
ag405
aa(lp1663
S'713'
p1664
ag405
aa(lp1665
S'715'
p1666
ag405
aa(lp1667
S'717'
p1668
ag405
aa(lp1669
S'718'
p1670
ag405
aa(lp1671
S'720'
p1672
ag405
aa(lp1673
S'722'
p1674
ag405
aa(lp1675
S'725'
p1676
ag405
aa(lp1677
S'728'
p1678
ag405
aa(lp1679
S'731'
p1680
ag405
aa(lp1681
S'732'
p1682
ag405
aa(lp1683
S'733'
p1684
ag405
aa(lp1685
S'734'
p1686
ag405
aa(lp1687
S'736'
p1688
ag405
aa(lp1689
S'7364'
p1690
ag405
aa(lp1691
S'737'
p1692
ag405
aa(lp1693
S'738'
p1694
ag405
aa(lp1695
S'740'
p1696
ag405
aa(lp1697
S'744'
p1698
ag405
aa(lp1699
S'745'
p1700
ag405
aa(lp1701
S'746'
p1702
ag405
aa(lp1703
S'8440'
p1704
ag405
aa(lp1705
S'8455'
p1706
ag405
aa(lp1707
S'8463'
p1708
ag405
aa(lp1709
S'8484'
p1710
ag405
aa(lp1711
S'8497'
p1712
ag405
aa(lp1713
S'8500'
p1714
ag405
aa(lp1715
S'8521'
p1716
ag405
aa(lp1717
S'8524'
p1718
ag405
aa(lp1719
S'8564'
p1720
ag405
aa(lp1721
S'499'
p1722
ag405
aa(lp1723
S'516'
p1724
ag405
aa(lp1725
S'527'
p1726
ag405
aa(lp1727
S'544'
p1728
ag405
aa(lp1729
S'549'
p1730
ag405
aa(lp1731
S'563'
p1732
ag405
aa(lp1733
S'519'
p1734
ag405
aa(lp1735
S'8667'
p1736
aS'8668'
p1737
aa(lp1738
S'8712'
p1739
ag1737
aa(lp1740
S'8717'
p1741
ag1737
aa(lp1742
S'8889'
p1743
aS'8765'
p1744
aa(lp1745
S'8925'
p1746
ag1744
aa(lp1747
S'8880'
p1748
aS'8884'
p1749
aa(lp1750
S'8844'
p1751
aS'8729'
p1752
aa(lp1753
S'8902'
p1754
ag1752
aa(lp1755
S'8571'
p1756
aS'8937'
p1757
aa(lp1758
S'8780'
p1759
aS'8570'
p1760
aa(lp1761
S'8772'
p1762
ag1757
aa(lp1763
S'8933'
p1764
ag1757
aa(lp1765
S'626'
p1766
aS'625'
p1767
aa(lp1768
S'6447'
p1769
aS'6424'
p1770
aa(lp1771
S'6462'
p1772
ag920
aa(lp1773
S'5239'
p1774
aS'5230'
p1775
aa(lp1776
S'5243'
p1777
ag1775
aa(lp1778
S'5575'
p1779
ag1775
aa(lp1780
S'5237'
p1781
ag1775
aa(lp1782
S'5215'
p1783
aS'7484'
p1784
aa(lp1785
S'5318'
p1786
aS'5691'
p1787
aa(lp1788
S'5667'
p1789
ag1787
aa(lp1790
S'1441'
p1791
ag928
aa(lp1792
S'5221'
p1793
ag928
aa(lp1794
S'6294'
p1795
ag928
aa(lp1796
S'5997'
p1797
ag959
aa(lp1798
S'5955'
p1799
aS'5958'
p1800
aa(lp1801
S'5235'
p1802
ag964
aa(lp1803
S'5245'
p1804
ag964
aa(lp1805
S'5960'
p1806
aS'5876'
p1807
aa(lp1808
S'1895'
p1809
aS'1898'
p1810
aa(lp1811
S'1901'
p1812
ag1810
aa(lp1813
S'1902'
p1814
ag1810
aa(lp1815
S'1903'
p1816
ag1810
aa(lp1817
S'1904'
p1818
ag1810
aa(lp1819
S'1907'
p1820
ag1810
aa(lp1821
S'1908'
p1822
ag1810
aa(lp1823
S'1909'
p1824
ag1810
aa(lp1825
S'1911'
p1826
ag1810
aa(lp1827
S'1912'
p1828
ag1810
aa(lp1829
S'1913'
p1830
ag1810
aa(lp1831
S'1914'
p1832
ag1810
aa(lp1833
S'1915'
p1834
ag1810
aa(lp1835
S'1916'
p1836
ag1810
aa(lp1837
S'1917'
p1838
ag1810
aa(lp1839
S'1918'
p1840
ag1810
aa(lp1841
S'1919'
p1842
ag1810
aa(lp1843
S'1922'
p1844
ag1810
aa(lp1845
S'1923'
p1846
ag1810
aa(lp1847
S'1896'
p1848
ag1810
aa(lp1849
S'6420'
p1850
ag967
aa(lp1851
S'6421'
p1852
ag967
aa(lp1853
S'6422'
p1854
ag967
aa(lp1855
S'6426'
p1856
ag967
aa(lp1857
S'6428'
p1858
ag967
aa(lp1859
S'6429'
p1860
ag967
aa(lp1861
S'6431'
p1862
ag967
aa(lp1863
S'6437'
p1864
ag967
aa(lp1865
S'6438'
p1866
ag967
aa(lp1867
S'6441'
p1868
ag967
aa(lp1869
S'6442'
p1870
ag967
aa(lp1871
S'5334'
p1872
aS'5331'
p1873
aa(lp1874
S'5330'
p1875
aS'5226'
p1876
aa(lp1877
S'5359'
p1878
ag1876
aa(lp1879
S'5361'
p1880
ag1876
aa(lp1881
S'7485'
p1882
aS'7487'
p1883
aa(lp1884
S'7486'
p1885
ag1883
aa(lp1886
S'5352'
p1887
aS'5368'
p1888
aa(lp1889
S'5356'
p1890
ag1888
aa(lp1891
S'5358'
p1892
ag1888
aa(lp1893
S'5229'
p1894
aS'5233'
p1895
aa(lp1896
S'7129'
p1897
ag986
aa(lp1898
S'436'
p1899
ag989
aa(lp1900
S'5111'
p1901
aS'433'
p1902
aa(lp1903
S'5220'
p1904
ag989
aa(lp1905
S'5208'
p1906
aS'7109'
p1907
aa(lp1908
S'467'
p1909
ag1902
aa(lp1910
S'5217'
p1911
ag1902
aa(lp1912
S'5218'
p1913
ag1902
aa(lp1914
S'5182'
p1915
aS'5186'
p1916
aa(lp1917
S'5183'
p1918
ag1916
aa(lp1919
S'5184'
p1920
ag1916
aa(lp1921
S'5187'
p1922
ag1916
aa(lp1923
S'5274'
p1924
aS'5273'
p1925
aa(lp1926
S'5263'
p1927
aS'5262'
p1928
aa(lp1929
S'6190'
p1930
aS'6189'
p1931
aa(lp1932
S'7394'
p1933
aS'6978'
p1934
aa(lp1935
S'5917'
p1936
aS'5890'
p1937
aa(lp1938
S'5937'
p1939
ag1937
aa(lp1940
S'5947'
p1941
ag1937
aa(lp1942
S'6423'
p1943
aS'6448'
p1944
aa(lp1945
S'7157'
p1946
aS'7153'
p1947
aa(lp1948
S'5678'
p1949
aS'5676'
p1950
aa(lp1951
S'5680'
p1952
ag1950
aa(lp1953
S'5080'
p1954
aS'5078'
p1955
aa(lp1956
S'5081'
p1957
ag1955
aa(lp1958
S'5082'
p1959
ag1955
aa(lp1960
S'5079'
p1961
ag1955
aa(lp1962
S'5539'
p1963
aS'5555'
p1964
aa(lp1965
S'5542'
p1966
ag1964
aa(lp1967
S'5554'
p1968
ag1964
aa(lp1969
S'5532'
p1970
aS'5523'
p1971
aa(lp1972
S'5537'
p1973
ag1971
aa(lp1974
S'5543'
p1975
ag1964
aa(lp1976
S'5389'
p1977
aS'5388'
p1978
aa(lp1979
S'6460'
p1980
aS'6451'
p1981
aa(lp1982
S'4962'
p1983
aS'4960'
p1984
aa(lp1985
S'587'
p1986
ag57
aa(lp1987
S'451'
p1988
ag1020
aa(lp1989
S'1004'
p1990
ag1188
aa(lp1991
S'5509'
p1992
ag7
aa(lp1993
S'5298'
p1994
ag21
aa(lp1995
S'5520'
p1996
ag21
aa(lp1997
S'5528'
p1998
ag21
aa(lp1999
S'5529'
p2000
ag21
aa(lp2001
S'6033'
p2002
ag1070
aa(lp2003
S'6078'
p2004
ag1070
aa(lp2005
S'6079'
p2006
ag1070
aa(lp2007
S'6080'
p2008
ag1070
aa(lp2009
S'6082'
p2010
ag1070
aa(lp2011
S'6083'
p2012
ag1070
aa(lp2013
S'6224'
p2014
ag1070
aa(lp2015
S'6245'
p2016
ag1070
aa(lp2017
S'6246'
p2018
ag1070
aa(lp2019
S'9042'
p2020
aS'9053'
p2021
aa(lp2022
S'8757'
p2023
aS'8753'
p2024
aa(lp2025
S'8665'
p2026
aS'8658'
p2027
aa(lp2028
S'9052'
p2029
aS'9041'
p2030
aa(lp2031
S'8998'
p2032
ag1102
aa(lp2033
S'5670'
p2034
aS'5671'
p2035
aa(lp2036
S'1605'
p2037
ag1110
aa(lp2038
S'6251'
p2039
ag1113
aa(lp2040
S'6262'
p2041
ag1113
aa(lp2042
S'6268'
p2043
ag1113
aa(lp2044
S'6259'
p2045
ag1113
aa(lp2046
S'6267'
p2047
aS'6266'
p2048
aa(lp2049
S'6270'
p2050
ag2048
aa(lp2051
S'6276'
p2052
ag2048
aa(lp2053
S'6250'
p2054
ag1116
aa(lp2055
S'6282'
p2056
ag1124
aa(lp2057
S'6272'
p2058
ag1124
aa(lp2059
S'5860'
p2060
aS'5864'
p2061
aa(lp2062
S'6031'
p2063
ag1151
aa(lp2064
S'646'
p2065
ag1154
aa(lp2066
S'660'
p2067
ag1154
aa(lp2068
S'716'
p2069
ag1154
aa(lp2070
S'719'
p2071
ag1154
aa(lp2072
S'721'
p2073
ag1154
aa(lp2074
S'723'
p2075
ag1154
aa(lp2076
S'724'
p2077
ag1154
aa(lp2078
S'730'
p2079
ag1154
aa(lp2080
S'667'
p2081
aS'648'
p2082
aa(lp2083
S'668'
p2084
ag2082
aa(lp2085
S'1170'
p2086
ag60
aa(lp2087
S'1018'
p2088
ag1165
aa(lp2089
S'1021'
p2090
ag1165
aa(lp2091
S'1037'
p2092
ag1165
aa(lp2093
S'1038'
p2094
ag1165
aa(lp2095
S'1040'
p2096
ag1165
aa(lp2097
S'5866'
p2098
aS'5865'
p2099
aa(lp2100
S'6049'
p2101
ag1193
aa(lp2102
S'6051'
p2103
ag1193
aa(lp2104
S'1413'
p2105
aS'1409'
p2106
aa(lp2107
S'1426'
p2108
ag2106
aa(lp2109
S'1430'
p2110
ag2106
aa(lp2111
S'1431'
p2112
ag2106
aa(lp2113
S'1434'
p2114
ag2106
aa(lp2115
S'1438'
p2116
ag2106
aa(lp2117
S'1424'
p2118
ag2106
aa(lp2119
S'6177'
p2120
ag1193
aa(lp2121
S'6178'
p2122
ag1193
aa(lp2123
S'993'
p2124
aS'995'
p2125
aa(lp2126
S'991'
p2127
ag2125
aa(lp2128
S'1368'
p2129
ag1247
aa(lp2130
S'1351'
p2131
ag1247
aa(lp2132
S'1353'
p2133
ag1247
aa(lp2134
S'1370'
p2135
ag1247
aa(lp2136
S'1246'
p2137
aS'1248'
p2138
aa(lp2139
S'1249'
p2140
ag2138
aa(lp2141
S'8636'
p2142
aS'8642'
p2143
aa(lp2144
S'6186'
p2145
aS'6244'
p2146
aa(lp2147
S'5859'
p2148
ag1273
aa(lp2149
S'6290'
p2150
ag1292
aa(lp2151
S'6287'
p2152
ag1292
aa(lp2153
S'6842'
p2154
ag173
aa(lp2155
S'6840'
p2156
ag173
aa(lp2157
S'6314'
p2158
ag191
aa(lp2159
S'6405'
p2160
ag208
aa(lp2161
S'6339'
p2162
ag208
aa(lp2163
S'6384'
p2164
ag208
aa(lp2165
S'6398'
p2166
ag1398
aa(lp2167
S'2292'
p2168
aS'2293'
p2169
aa(lp2170
S'6336'
p2171
ag258
aa(lp2172
S'6319'
p2173
ag258
aa(lp2174
S'1122'
p2175
ag281
aa(lp2176
S'1130'
p2177
ag281
aa(lp2178
S'6931'
p2179
aS'7465'
p2180
aa(lp2181
S'6089'
p2182
aS'6088'
p2183
aa(lp2184
S'9045'
p2185
aS'9051'
p2186
aa(lp2187
S'8672'
p2188
ag1444
aa(lp2189
S'8703'
p2190
ag1444
aa(lp2191
S'8671'
p2192
ag1444
aa(lp2193
S'8670'
p2194
ag1444
aa(lp2195
S'8691'
p2196
ag1444
aa(lp2197
S'8707'
p2198
ag1444
aa(lp2199
S'8664'
p2200
ag1444
aa(lp2201
S'8676'
p2202
ag1444
aa(lp2203
S'8678'
p2204
ag1444
aa(lp2205
S'8685'
p2206
ag1444
aa(lp2207
S'8688'
p2208
ag1444
aa(lp2209
S'8714'
p2210
ag1444
aa(lp2211
S'5693'
p2212
ag1463
aa(lp2213
S'5584'
p2214
aS'5586'
p2215
aa(lp2216
S'452'
p2217
aS'432'
p2218
aa(lp2219
S'456'
p2220
ag2218
aa(lp2221
S'457'
p2222
ag2218
aa(lp2223
S'2343'
p2224
aS'2336'
p2225
aa(lp2226
S'5155'
p2227
ag1466
aa(lp2228
S'6425'
p2229
aS'6976'
p2230
aa(lp2231
S'7101'
p2232
aS'7419'
p2233
aa(lp2234
S'5698'
p2235
ag365
aa(lp2236
S'5701'
p2237
ag365
aa(lp2238
S'5702'
p2239
ag365
aa(lp2240
S'7490'
p2241
aS'7488'
p2242
aa(lp2243
S'961'
p2244
aS'963'
p2245
aa(lp2246
S'5131'
p2247
ag360
aa(lp2248
S'5147'
p2249
ag360
aa(lp2250
S'5250'
p2251
ag360
aa(lp2252
S'5664'
p2253
ag365
aa(lp2254
S'5283'
p2255
ag1501
aa(lp2256
S'5581'
p2257
ag1501
aa(lp2258
S'5188'
p2259
ag1504
aa(lp2260
S'5317'
p2261
ag1504
aa(lp2262
S'496'
p2263
ag405
aa(lp2264
S'5268'
p2265
aS'5214'
p2266
aa(lp2267
S'7359'
p2268
ag405
aa(lp2269
S'510'
p2270
ag405
aa(lp2271
S'675'
p2272
ag405
aa(lp2273
S'1759'
p2274
ag405
aa(lp2275
S'8509'
p2276
ag405
aa(lp2277
S'469'
p2278
ag405
aa(lp2279
S'658'
p2280
ag405
aa(lp2281
S'682'
p2282
ag405
aa(lp2283
S'726'
p2284
ag405
aa(lp2285
S'735'
p2286
ag405
aa(lp2287
S'739'
p2288
ag405
aa(lp2289
S'747'
p2290
ag405
aa(lp2291
S'8666'
p2292
ag1737
aa(lp2293
S'8711'
p2294
ag1737
aa(lp2295
S'8716'
p2296
ag1737
aa(lp2297
S'8782'
p2298
ag1744
aa(lp2299
S'8868'
p2300
ag1744
aa(lp2301
S'639'
p2302
ag1767
aa(lp2303
S'5240'
p2304
ag1775
aa(lp2305
S'5137'
p2306
ag2266
aa(lp2307
S'5275'
p2308
ag2266
aa(lp2309
S'5662'
p2310
ag1787
aa(lp2311
S'5706'
p2312
ag1787
aa(lp2313
S'5177'
p2314
ag928
aa(lp2315
S'6397'
p2316
aS'6374'
p2317
aa(lp2318
S'6359'
p2319
ag2317
aa(lp2320
S'5944'
p2321
ag1807
aa(lp2322
S'5969'
p2323
ag1807
aa(lp2324
S'1906'
p2325
ag1810
aa(lp2326
S'1920'
p2327
ag1810
aa(lp2328
S'1921'
p2329
ag1810
aa(lp2330
S'5100'
p2331
ag1876
aa(lp2332
S'6924'
p2333
ag1876
aa(lp2334
S'5086'
p2335
ag1876
aa(lp2336
S'5088'
p2337
ag1876
aa(lp2338
S'5093'
p2339
ag1876
aa(lp2340
S'5095'
p2341
ag1876
aa(lp2342
S'5227'
p2343
ag1876
aa(lp2344
S'5355'
p2345
ag1876
aa(lp2346
S'5362'
p2347
ag1876
aa(lp2348
S'5351'
p2349
ag1888
aa(lp2350
S'5357'
p2351
ag1888
aa(lp2352
S'5360'
p2353
ag1888
aa(lp2354
S'5246'
p2355
aS'5247'
p2356
aa(lp2357
S'5638'
p2358
aS'5579'
p2359
aa(lp2360
S'5594'
p2361
aS'5577'
p2362
aa(lp2363
S'5077'
p2364
ag989
aa(lp2365
S'5103'
p2366
ag989
aa(lp2367
S'5101'
p2368
ag1902
aa(lp2369
S'5025'
p2370
ag989
aa(lp2371
S'4984'
p2372
ag1907
aa(lp2373
S'5092'
p2374
ag989
aa(lp2375
S'434'
p2376
ag1907
aa(lp2377
S'5099'
p2378
ag1907
aa(lp2379
S'5112'
p2380
ag1907
aa(lp2381
S'5074'
p2382
ag989
aa(lp2383
S'5076'
p2384
ag1907
aa(lp2385
S'5391'
p2386
ag1916
aa(lp2387
S'5180'
p2388
ag1916
aa(lp2389
S'5212'
p2390
ag1925
aa(lp2391
S'7128'
p2392
aS'7127'
p2393
aa(lp2394
S'6002'
p2395
aS'5999'
p2396
aa(lp2397
S'5919'
p2398
aS'5995'
p2399
aa(lp2400
S'5990'
p2401
aS'5989'
p2402
aa(lp2403
S'7349'
p2404
aS'7350'
p2405
aa(lp2406
S'5920'
p2407
aS'5925'
p2408
aa(lp2409
S'5383'
p2410
aS'5385'
p2411
aa(lp2412
S'5679'
p2413
ag1950
aa(lp2414
S'5545'
p2415
ag1964
aa(lp2416
S'5687'
p2417
ag1964
aa(lp2418
S'5675'
p2419
ag1950
aa(lp2420
S'5075'
p2421
ag1955
aa(lp2422
S'5681'
p2423
ag1964
aa(lp2424
S'5551'
p2425
ag1964
aa(lp2426
S'5589'
p2427
ag1971
aa(lp2428
S'7317'
p2429
ag1015
aa(lp2430
S'643'
p2431
ag2082
aa(lp2432
S'6382'
p2433
ag191
aa(lp2434
S'6311'
p2435
ag208
aa(lp2436
S'6364'
p2437
ag1398
aa(lp2438
S'5527'
p2439
ag21
aa(lp2440
S'5375'
p2441
aS'5377'
p2442
aa(lp2443
S'443'
p2444
ag1020
aa(lp2445
S'1024'
p2446
ag1165
aa(lp2447
S'5525'
p2448
ag21
aa(lp2449
S'6081'
p2450
ag1070
aa(lp2451
S'5310'
p2452
aS'5301'
p2453
aa(lp2454
S'8995'
p2455
aS'8986'
p2456
aa(lp2457
S'9009'
p2458
aS'9008'
p2459
aa(lp2460
S'4740'
p2461
aS'7497'
p2462
aa(lp2463
S'6223'
p2464
ag1110
aa(lp2465
S'6257'
p2466
aS'6253'
p2467
aa(lp2468
S'6271'
p2469
ag2048
aa(lp2470
S'6279'
p2471
ag1124
aa(lp2472
S'5862'
p2473
ag2061
aa(lp2474
S'5861'
p2475
ag2061
aa(lp2476
S'5863'
p2477
ag2061
aa(lp2478
S'5376'
p2479
ag2442
aa(lp2480
S'663'
p2481
ag2082
aa(lp2482
S'665'
p2483
ag2082
aa(lp2484
S'1162'
p2485
ag60
aa(lp2486
S'1017'
p2487
ag1165
aa(lp2488
S'1020'
p2489
ag1165
aa(lp2490
S'1025'
p2491
ag1165
aa(lp2492
S'1030'
p2493
ag1165
aa(lp2494
S'1411'
p2495
ag2106
aa(lp2496
S'1423'
p2497
ag2106
aa(lp2498
S'1415'
p2499
ag2106
aa(lp2500
S'1416'
p2501
ag2106
aa(lp2502
S'1425'
p2503
ag2106
aa(lp2504
S'1445'
p2505
ag1193
aa(lp2506
S'1371'
p2507
ag1247
aa(lp2508
S'1378'
p2509
ag1247
aa(lp2510
S'1349'
p2511
ag1247
aa(lp2512
S'1352'
p2513
ag1247
aa(lp2514
S'1355'
p2515
ag1247
aa(lp2516
S'1365'
p2517
ag1247
aa(lp2518
S'1258'
p2519
aS'1259'
p2520
aa(lp2521
S'1257'
p2522
ag2520
aa(lp2523
S'1250'
p2524
ag2138
aa(lp2525
S'1255'
p2526
ag2138
aa(lp2527
S'5729'
p2528
aS'5640'
p2529
aa(lp2530
S'4829'
p2531
aS'4828'
p2532
aa(lp2533
S'1126'
p2534
ag281
aa(lp2535
S'1550'
p2536
aS'1545'
p2537
aa(lp2538
S'1517'
p2539
aS'1527'
p2540
aa(lp2541
S'1526'
p2542
ag2540
aa(lp2543
S'5857'
p2544
ag1273
aa(lp2545
S'6231'
p2546
aS'6230'
p2547
aa(lp2548
S'7111'
p2549
aS'6914'
p2550
aa(lp2551
S'7342'
p2552
ag2550
aa(lp2553
S'6932'
p2554
ag164
aa(lp2555
S'7213'
p2556
ag164
aa(lp2557
S'7214'
p2558
ag164
aa(lp2559
S'7215'
p2560
ag164
aa(lp2561
S'5534'
p2562
ag164
aa(lp2563
S'6843'
p2564
ag173
aa(lp2565
S'6310'
p2566
ag191
aa(lp2567
S'6342'
p2568
ag208
aa(lp2569
S'2014'
p2570
aS'1945'
p2571
aa(lp2572
S'1138'
p2573
ag281
aa(lp2574
S'6952'
p2575
aS'6951'
p2576
aa(lp2577
S'8745'
p2578
ag300
aa(lp2579
S'1403'
p2580
aS'1407'
p2581
aa(lp2582
S'1405'
p2583
ag2581
aa(lp2584
S'1379'
p2585
aS'1383'
p2586
aa(lp2587
S'1387'
p2588
ag2586
aa(lp2589
S'8686'
p2590
ag1444
aa(lp2591
S'8702'
p2592
ag1444
aa(lp2593
S'8704'
p2594
ag1444
aa(lp2595
S'8705'
p2596
ag1444
aa(lp2597
S'8706'
p2598
ag1444
aa(lp2599
S'8708'
p2600
ag1444
aa(lp2601
S'8715'
p2602
ag1444
aa(lp2603
S'7957'
p2604
aS'8820'
p2605
aa(lp2606
S'8819'
p2607
aS'8797'
p2608
aa(lp2609
S'5156'
p2610
ag1466
aa(lp2611
S'5270'
p2612
aS'5271'
p2613
aa(lp2614
S'440'
p2615
ag2218
aa(lp2616
S'5064'
p2617
ag2218
aa(lp2618
S'6821'
p2619
aS'6820'
p2620
aa(lp2621
S'6882'
p2622
aS'6877'
p2623
aa(lp2624
S'6887'
p2625
ag2623
aa(lp2626
S'6888'
p2627
ag2623
aa(lp2628
S'6890'
p2629
ag2623
aa(lp2630
S'6895'
p2631
ag2623
aa(lp2632
S'2334'
p2633
ag2225
aa(lp2634
S'2329'
p2635
ag2225
aa(lp2636
S'2351'
p2637
ag2225
aa(lp2638
S'5582'
p2639
aS'5585'
p2640
aa(lp2641
S'4803'
p2642
aS'4965'
p2643
aa(lp2644
S'5176'
p2645
aS'5174'
p2646
aa(lp2647
S'5705'
p2648
ag365
aa(lp2649
S'5704'
p2650
ag365
aa(lp2651
S'4609'
p2652
aS'4608'
p2653
aa(lp2654
S'5600'
p2655
ag1501
aa(lp2656
S'5602'
p2657
ag1501
aa(lp2658
S'7369'
p2659
aS'6971'
p2660
aa(lp2661
S'7370'
p2662
ag2660
aa(lp2663
S'959'
p2664
aS'954'
p2665
aa(lp2666
S'4975'
p2667
ag360
aa(lp2668
S'5645'
p2669
aS'5648'
p2670
aa(lp2671
S'7108'
p2672
ag1504
aa(lp2673
S'7107'
p2674
ag1504
aa(lp2675
S'5190'
p2676
ag1501
aa(lp2677
S'5264'
p2678
aS'5265'
p2679
aa(lp2680
S'5252'
p2681
aS'5251'
p2682
aa(lp2683
S'5365'
p2684
ag1888
aa(lp2685
S'5629'
p2686
ag2362
aa(lp2687
S'445'
p2688
ag989
aa(lp2689
S'5257'
p2690
ag1928
aa(lp2691
S'5624'
p2692
aS'5621'
p2693
aa(lp2694
S'1780'
p2695
ag405
aa(lp2696
S'495'
p2697
ag405
aa(lp2698
S'477'
p2699
ag405
aa(lp2700
S'8689'
p2701
aS'8690'
p2702
aa(lp2703
S'8710'
p2704
ag2702
aa(lp2705
S'2219'
p2706
aS'2205'
p2707
aa(lp2708
S'1767'
p2709
ag405
aa(lp2710
S'1771'
p2711
ag405
aa(lp2712
S'1648'
p2713
ag405
aa(lp2714
S'1689'
p2715
ag405
aa(lp2716
S'1830'
p2717
ag405
aa(lp2718
S'1846'
p2719
ag405
aa(lp2720
S'2017'
p2721
ag405
aa(lp2722
S'2040'
p2723
ag405
aa(lp2724
S'2048'
p2725
ag405
aa(lp2726
S'2055'
p2727
ag405
aa(lp2728
S'2063'
p2729
ag405
aa(lp2730
S'2067'
p2731
ag405
aa(lp2732
S'2068'
p2733
ag405
aa(lp2734
S'2071'
p2735
ag405
aa(lp2736
S'2081'
p2737
ag405
aa(lp2738
S'2084'
p2739
ag405
aa(lp2740
S'2086'
p2741
ag405
aa(lp2742
S'2087'
p2743
ag405
aa(lp2744
S'2088'
p2745
ag405
aa(lp2746
S'2091'
p2747
ag405
aa(lp2748
S'2092'
p2749
ag405
aa(lp2750
S'2101'
p2751
ag405
aa(lp2752
S'2106'
p2753
ag405
aa(lp2754
S'2110'
p2755
ag405
aa(lp2756
S'2116'
p2757
ag405
aa(lp2758
S'2117'
p2759
ag405
aa(lp2760
S'2118'
p2761
ag405
aa(lp2762
S'2120'
p2763
ag405
aa(lp2764
S'2125'
p2765
ag405
aa(lp2766
S'2140'
p2767
ag405
aa(lp2768
S'2141'
p2769
ag405
aa(lp2770
S'2146'
p2771
ag405
aa(lp2772
S'2153'
p2773
ag405
aa(lp2774
S'2159'
p2775
ag405
aa(lp2776
S'2166'
p2777
ag405
aa(lp2778
S'2170'
p2779
ag405
aa(lp2780
S'2174'
p2781
ag405
aa(lp2782
S'2194'
p2783
ag405
aa(lp2784
S'2228'
p2785
ag405
aa(lp2786
S'2240'
p2787
ag405
aa(lp2788
S'2254'
p2789
ag405
aa(lp2790
S'2255'
p2791
ag405
aa(lp2792
S'2257'
p2793
ag405
aa(lp2794
S'2264'
p2795
ag405
aa(lp2796
S'2265'
p2797
ag405
aa(lp2798
S'2268'
p2799
ag405
aa(lp2800
S'2400'
p2801
ag405
aa(lp2802
S'2412'
p2803
ag405
aa(lp2804
S'6736'
p2805
ag405
aa(lp2806
S'6739'
p2807
ag405
aa(lp2808
S'6740'
p2809
ag405
aa(lp2810
S'6748'
p2811
ag405
aa(lp2812
S'6757'
p2813
ag405
aa(lp2814
S'6807'
p2815
ag405
aa(lp2816
S'7148'
p2817
ag405
aa(lp2818
S'7475'
p2819
ag405
aa(lp2820
S'7600'
p2821
ag405
aa(lp2822
S'491'
p2823
ag405
aa(lp2824
S'727'
p2825
ag405
aa(lp2826
S'533'
p2827
ag405
aa(lp2828
S'548'
p2829
ag405
aa(lp2830
S'741'
p2831
ag405
aa(lp2832
S'5148'
p2833
aS'5207'
p2834
aa(lp2835
S'5142'
p2836
ag2266
aa(lp2837
S'5135'
p2838
ag2266
aa(lp2839
S'5140'
p2840
ag2266
aa(lp2841
S'5657'
p2842
ag1787
aa(lp2843
S'5672'
p2844
ag1787
aa(lp2845
S'5656'
p2846
ag928
aa(lp2847
S'6714'
p2848
ag928
aa(lp2849
S'7233'
p2850
ag928
aa(lp2851
S'5639'
p2852
ag928
aa(lp2853
S'6326'
p2854
ag2317
aa(lp2855
S'6357'
p2856
ag2317
aa(lp2857
S'5885'
p2858
ag1807
aa(lp2859
S'8229'
p2860
aS'7301'
p2861
aa(lp2862
S'5337'
p2863
aS'5338'
p2864
aa(lp2865
S'6797'
p2866
ag1876
aa(lp2867
S'6798'
p2868
ag1876
aa(lp2869
S'6801'
p2870
ag1876
aa(lp2871
S'5084'
p2872
ag1876
aa(lp2873
S'7184'
p2874
aS'7185'
p2875
aa(lp2876
S'7216'
p2877
ag1902
aa(lp2878
S'441'
p2879
ag1907
aa(lp2880
S'5089'
p2881
ag1902
aa(lp2882
S'5113'
p2883
ag1902
aa(lp2884
S'5619'
p2885
ag2693
aa(lp2886
S'5620'
p2887
ag2693
aa(lp2888
S'5628'
p2889
ag2693
aa(lp2890
S'5390'
p2891
ag1978
aa(lp2892
S'5386'
p2893
ag1978
aa(lp2894
S'5387'
p2895
ag1978
aa(lp2896
S'5688'
p2897
ag1964
aa(lp2898
S'5499'
p2899
ag1971
aa(lp2900
S'5694'
p2901
ag1964
aa(lp2902
S'4788'
p2903
ag1007
aa(lp2904
S'5677'
p2905
ag1950
aa(lp2906
S'1820'
p2907
ag405
aa(lp2908
S'1828'
p2909
ag405
aa(lp2910
S'2038'
p2911
ag405
aa(lp2912
S'2062'
p2913
ag405
aa(lp2914
S'2082'
p2915
ag405
aa(lp2916
S'2112'
p2917
ag405
aa(lp2918
S'6854'
p2919
aS'6864'
p2920
aa(lp2921
S'6860'
p2922
ag2920
aa(lp2923
S'6772'
p2924
ag241
aa(lp2925
S'7502'
p2926
ag1984
aa(lp2927
S'5471'
p2928
ag21
aa(lp2929
S'5374'
p2930
ag2442
aa(lp2931
S'5378'
p2932
ag2442
aa(lp2933
S'1154'
p2934
ag60
aa(lp2935
S'8994'
p2936
aS'8987'
p2937
aa(lp2938
S'1031'
p2939
ag1165
aa(lp2940
S'1033'
p2941
ag1165
aa(lp2942
S'1039'
p2943
ag1165
aa(lp2944
S'5158'
p2945
aS'5157'
p2946
aa(lp2947
S'7456'
p2948
aS'7453'
p2949
aa(lp2950
S'1304'
p2951
aS'1316'
p2952
aa(lp2953
S'2179'
p2954
aS'2176'
p2955
aa(lp2956
S'7928'
p2957
ag2024
aa(lp2958
S'7969'
p2959
ag2024
aa(lp2960
S'7978'
p2961
ag2024
aa(lp2962
S'7994'
p2963
ag2024
aa(lp2964
S'8001'
p2965
ag2024
aa(lp2966
S'7967'
p2967
ag2024
aa(lp2968
S'8673'
p2969
ag2027
aa(lp2970
S'2172'
p2971
ag2955
aa(lp2972
S'7398'
p2973
ag1110
aa(lp2974
S'6255'
p2975
ag1116
aa(lp2976
S'6273'
p2977
ag1124
aa(lp2978
S'642'
p2979
ag57
aa(lp2980
S'1421'
p2981
ag2106
aa(lp2982
S'1433'
p2983
ag2106
aa(lp2984
S'1436'
p2985
ag2106
aa(lp2986
S'1428'
p2987
ag2106
aa(lp2988
S'1432'
p2989
ag2106
aa(lp2990
S'1354'
p2991
ag1247
aa(lp2992
S'1359'
p2993
ag1247
aa(lp2994
S'1005'
p2995
ag2125
aa(lp2996
S'1358'
p2997
ag1247
aa(lp2998
S'1260'
p2999
ag2520
aa(lp3000
S'5796'
p3001
ag2532
aa(lp3002
S'4839'
p3003
ag2529
aa(lp3004
S'8552'
p3005
aS'8551'
p3006
aa(lp3007
S'1139'
p3008
ag281
aa(lp3009
S'5196'
p3010
ag1295
aa(lp3011
S'6844'
p3012
ag173
aa(lp3013
S'6861'
p3014
ag173
aa(lp3015
S'6724'
p3016
aS'6907'
p3017
aa(lp3018
S'6368'
p3019
ag191
aa(lp3020
S'2025'
p3021
aS'2012'
p3022
aa(lp3023
S'1997'
p3024
ag3022
aa(lp3025
S'2023'
p3026
ag3022
aa(lp3027
S'2021'
p3028
ag3022
aa(lp3029
S'6828'
p3030
ag2180
aa(lp3031
S'6831'
p3032
ag2180
aa(lp3033
S'7466'
p3034
ag2180
aa(lp3035
S'7468'
p3036
ag2180
aa(lp3037
S'7469'
p3038
ag2180
aa(lp3039
S'7020'
p3040
aS'7015'
p3041
aa(lp3042
S'7205'
p3043
aS'7204'
p3044
aa(lp3045
S'1393'
p3046
ag2586
aa(lp3047
S'1391'
p3048
ag2586
aa(lp3049
S'1399'
p3050
ag2586
aa(lp3051
S'5152'
p3052
ag1466
aa(lp3053
S'4801'
p3054
ag2643
aa(lp3055
S'5145'
p3056
aS'5144'
p3057
aa(lp3058
S'5058'
p3059
ag2218
aa(lp3060
S'5370'
p3061
aS'5371'
p3062
aa(lp3063
S'6879'
p3064
ag2623
aa(lp3065
S'7676'
p3066
ag2623
aa(lp3067
S'6885'
p3068
ag2623
aa(lp3069
S'6883'
p3070
ag2623
aa(lp3071
S'6889'
p3072
ag2623
aa(lp3073
S'7007'
p3074
ag354
aa(lp3075
S'4957'
p3076
ag2643
aa(lp3077
S'4959'
p3078
ag2643
aa(lp3079
S'4785'
p3080
aS'4786'
p3081
aa(lp3082
S'5771'
p3083
ag2646
aa(lp3084
S'5799'
p3085
ag2646
aa(lp3086
S'7198'
p3087
aS'7197'
p3088
aa(lp3089
S'5610'
p3090
aS'5614'
p3091
aa(lp3092
S'7219'
p3093
aS'6936'
p3094
aa(lp3095
S'5162'
p3096
ag360
aa(lp3097
S'5644'
p3098
ag2670
aa(lp3099
S'5504'
p3100
ag1501
aa(lp3101
S'5392'
p3102
ag1504
aa(lp3103
S'1757'
p3104
ag405
aa(lp3105
S'5598'
p3106
ag1876
aa(lp3107
S'5593'
p3108
ag2359
aa(lp3109
S'2178'
p3110
ag405
aa(lp3111
S'2211'
p3112
ag2707
aa(lp3113
S'2218'
p3114
ag2707
aa(lp3115
S'2220'
p3116
ag2707
aa(lp3117
S'2225'
p3118
ag2707
aa(lp3119
S'2207'
p3120
ag2707
aa(lp3121
S'7674'
p3122
ag405
aa(lp3123
S'7782'
p3124
ag405
aa(lp3125
S'8045'
p3126
ag405
aa(lp3127
S'8056'
p3128
ag405
aa(lp3129
S'8064'
p3130
ag405
aa(lp3131
S'8067'
p3132
ag405
aa(lp3133
S'8091'
p3134
ag405
aa(lp3135
S'8197'
p3136
ag405
aa(lp3137
S'8206'
p3138
ag405
aa(lp3139
S'7567'
p3140
aS'8719'
p3141
aa(lp3142
S'6825'
p3143
aS'6824'
p3144
aa(lp3145
S'2259'
p3146
ag405
aa(lp3147
S'1768'
p3148
ag405
aa(lp3149
S'1813'
p3150
ag405
aa(lp3151
S'1817'
p3152
ag405
aa(lp3153
S'1818'
p3154
ag405
aa(lp3155
S'1819'
p3156
ag405
aa(lp3157
S'1826'
p3158
ag405
aa(lp3159
S'1832'
p3160
ag405
aa(lp3161
S'1840'
p3162
ag405
aa(lp3163
S'2028'
p3164
ag405
aa(lp3165
S'2044'
p3166
ag405
aa(lp3167
S'2045'
p3168
ag405
aa(lp3169
S'2050'
p3170
ag405
aa(lp3171
S'2053'
p3172
ag405
aa(lp3173
S'2065'
p3174
ag405
aa(lp3175
S'2072'
p3176
ag405
aa(lp3177
S'2104'
p3178
ag405
aa(lp3179
S'2129'
p3180
ag405
aa(lp3181
S'2132'
p3182
ag405
aa(lp3183
S'2144'
p3184
ag405
aa(lp3185
S'2149'
p3186
ag405
aa(lp3187
S'2156'
p3188
ag405
aa(lp3189
S'2177'
p3190
ag405
aa(lp3191
S'2229'
p3192
ag405
aa(lp3193
S'2237'
p3194
ag405
aa(lp3195
S'2239'
p3196
ag405
aa(lp3197
S'2252'
p3198
ag405
aa(lp3199
S'2260'
p3200
ag405
aa(lp3201
S'2262'
p3202
ag405
aa(lp3203
S'2263'
p3204
ag405
aa(lp3205
S'6754'
p3206
ag405
aa(lp3207
S'1766'
p3208
ag405
aa(lp3209
S'2076'
p3210
ag405
aa(lp3211
S'2133'
p3212
ag405
aa(lp3213
S'1640'
p3214
ag405
aa(lp3215
S'1651'
p3216
ag405
aa(lp3217
S'1670'
p3218
ag405
aa(lp3219
S'1677'
p3220
ag405
aa(lp3221
S'1678'
p3222
ag405
aa(lp3223
S'1683'
p3224
ag405
aa(lp3225
S'1690'
p3226
ag405
aa(lp3227
S'1695'
p3228
ag405
aa(lp3229
S'1697'
p3230
ag405
aa(lp3231
S'1699'
p3232
ag405
aa(lp3233
S'2374'
p3234
ag405
aa(lp3235
S'2380'
p3236
ag405
aa(lp3237
S'2385'
p3238
ag405
aa(lp3239
S'2404'
p3240
ag405
aa(lp3241
S'2192'
p3242
ag405
aa(lp3243
S'1824'
p3244
ag405
aa(lp3245
S'1843'
p3246
ag405
aa(lp3247
S'2236'
p3248
aS'2234'
p3249
aa(lp3250
S'1686'
p3251
ag405
aa(lp3252
S'2031'
p3253
ag405
aa(lp3254
S'2119'
p3255
ag405
aa(lp3256
S'2127'
p3257
ag405
aa(lp3258
S'2135'
p3259
ag405
aa(lp3260
S'2161'
p3261
ag405
aa(lp3262
S'2162'
p3263
ag405
aa(lp3264
S'2164'
p3265
ag405
aa(lp3266
S'2188'
p3267
ag405
aa(lp3268
S'2271'
p3269
ag405
aa(lp3270
S'2384'
p3271
ag405
aa(lp3272
S'6753'
p3273
ag405
aa(lp3274
S'7574'
p3275
ag405
aa(lp3276
S'2066'
p3277
ag405
aa(lp3278
S'2107'
p3279
ag405
aa(lp3280
S'2212'
p3281
ag405
aa(lp3282
S'2232'
p3283
ag405
aa(lp3284
S'2124'
p3285
ag405
aa(lp3286
S'2241'
p3287
ag405
aa(lp3288
S'685'
p3289
ag405
aa(lp3290
S'743'
p3291
ag405
aa(lp3292
S'7539'
p3293
aS'7532'
p3294
aa(lp3295
S'7543'
p3296
ag3294
aa(lp3297
S'7548'
p3298
ag3294
aa(lp3299
S'7551'
p3300
ag3294
aa(lp3301
S'7556'
p3302
ag3294
aa(lp3303
S'7558'
p3304
ag3294
aa(lp3305
S'7563'
p3306
ag3294
aa(lp3307
S'7528'
p3308
aS'9033'
p3309
aa(lp3310
S'7534'
p3311
ag3309
aa(lp3312
S'7545'
p3313
ag3309
aa(lp3314
S'7533'
p3315
aS'9016'
p3316
aa(lp3317
S'7542'
p3318
ag3316
aa(lp3319
S'7557'
p3320
ag3316
aa(lp3321
S'8977'
p3322
aS'8979'
p3323
aa(lp3324
S'6683'
p3325
aS'6682'
p3326
aa(lp3327
S'6685'
p3328
ag3326
aa(lp3329
S'6688'
p3330
ag3326
aa(lp3331
S'6690'
p3332
ag3326
aa(lp3333
S'6695'
p3334
ag3326
aa(lp3335
S'6697'
p3336
ag3326
aa(lp3337
S'6700'
p3338
ag3326
aa(lp3339
S'6702'
p3340
ag3326
aa(lp3341
S'6704'
p3342
ag3326
aa(lp3343
S'6705'
p3344
ag3326
aa(lp3345
S'6707'
p3346
ag3326
aa(lp3347
S'7274'
p3348
aS'7275'
p3349
aa(lp3350
S'5138'
p3351
ag1784
aa(lp3352
S'7454'
p3353
aS'7461'
p3354
aa(lp3355
S'4778'
p3356
ag928
aa(lp3357
S'5369'
p3358
ag2864
aa(lp3359
S'5123'
p3360
aS'5122'
p3361
aa(lp3362
S'5096'
p3363
ag989
aa(lp3364
S'4981'
p3365
ag1907
aa(lp3366
S'6948'
p3367
aS'6957'
p3368
aa(lp3369
S'7250'
p3370
ag1934
aa(lp3371
S'5980'
p3372
aS'5903'
p3373
aa(lp3374
S'5692'
p3375
ag1964
aa(lp3376
S'5685'
p3377
ag1964
aa(lp3378
S'4790'
p3379
ag1007
aa(lp3380
S'4789'
p3381
ag1007
aa(lp3382
S'4794'
p3383
ag1007
aa(lp3384
S'4796'
p3385
ag1007
aa(lp3386
S'7762'
p3387
aS'7760'
p3388
aa(lp3389
S'6891'
p3390
ag2623
aa(lp3391
S'2157'
p3392
aS'2158'
p3393
aa(lp3394
S'2184'
p3395
ag2955
aa(lp3396
S'7272'
p3397
aS'6945'
p3398
aa(lp3399
S'2195'
p3400
ag2707
aa(lp3401
S'2196'
p3402
ag2707
aa(lp3403
S'1835'
p3404
ag405
aa(lp3405
S'1842'
p3406
ag405
aa(lp3407
S'2073'
p3408
ag405
aa(lp3409
S'2145'
p3410
ag405
aa(lp3411
S'2147'
p3412
ag405
aa(lp3413
S'2238'
p3414
ag405
aa(lp3415
S'6756'
p3416
ag405
aa(lp3417
S'2094'
p3418
ag405
aa(lp3419
S'2139'
p3420
ag405
aa(lp3421
S'1630'
p3422
ag405
aa(lp3423
S'2077'
p3424
ag405
aa(lp3425
S'7677'
p3426
ag405
aa(lp3427
S'7757'
p3428
ag405
aa(lp3429
S'1823'
p3430
ag405
aa(lp3431
S'2111'
p3432
ag405
aa(lp3433
S'8047'
p3434
ag405
aa(lp3435
S'1804'
p3436
ag1289
aa(lp3437
S'1808'
p3438
ag1289
aa(lp3439
S'7194'
p3440
aS'7192'
p3441
aa(lp3442
S'2175'
p3443
aS'2167'
p3444
aa(lp3445
S'6793'
p3446
ag241
aa(lp3447
S'2187'
p3448
ag3022
aa(lp3449
S'5731'
p3450
ag2411
aa(lp3451
S'1866'
p3452
aS'1860'
p3453
aa(lp3454
S'4812'
p3455
aS'4818'
p3456
aa(lp3457
S'1310'
p3458
aS'1311'
p3459
aa(lp3460
S'5825'
p3461
aS'5821'
p3462
aa(lp3463
S'5826'
p3464
ag3462
aa(lp3465
S'5489'
p3466
ag21
aa(lp3467
S'8223'
p3468
ag26
aa(lp3469
S'5445'
p3470
aS'5444'
p3471
aa(lp3472
S'7915'
p3473
ag2024
aa(lp3474
S'7981'
p3475
ag2024
aa(lp3476
S'7982'
p3477
ag2024
aa(lp3478
S'8106'
p3479
ag2024
aa(lp3480
S'8752'
p3481
ag2024
aa(lp3482
S'5767'
p3483
aS'5674'
p3484
aa(lp3485
S'7395'
p3486
aS'7314'
p3487
aa(lp3488
S'6728'
p3489
aS'6716'
p3490
aa(lp3491
S'5069'
p3492
ag1020
aa(lp3493
S'5020'
p3494
ag1020
aa(lp3495
S'5800'
p3496
ag78
aa(lp3497
S'8014'
p3498
aS'8017'
p3499
aa(lp3500
S'8019'
p3501
ag3499
aa(lp3502
S'6047'
p3503
ag1193
aa(lp3504
S'1429'
p3505
ag2106
aa(lp3506
S'1427'
p3507
ag2106
aa(lp3508
S'1350'
p3509
ag1247
aa(lp3510
S'1253'
p3511
aS'1254'
p3512
aa(lp3513
S'6848'
p3514
ag173
aa(lp3515
S'6719'
p3516
aS'6726'
p3517
aa(lp3518
S'6847'
p3519
ag173
aa(lp3520
S'6720'
p3521
ag3017
aa(lp3522
S'7200'
p3523
ag1309
aa(lp3524
S'6330'
p3525
ag208
aa(lp3526
S'2202'
p3527
ag2571
aa(lp3528
S'6836'
p3529
ag2180
aa(lp3530
S'1084'
p3531
ag2586
aa(lp3532
S'1390'
p3533
ag2586
aa(lp3534
S'1398'
p3535
ag2586
aa(lp3536
S'1085'
p3537
ag2586
aa(lp3538
S'1401'
p3539
ag2586
aa(lp3540
S'1386'
p3541
ag2586
aa(lp3542
S'1395'
p3543
ag2586
aa(lp3544
S'8674'
p3545
ag1444
aa(lp3546
S'1123'
p3547
aS'1136'
p3548
aa(lp3549
S'5172'
p3550
ag989
aa(lp3551
S'5695'
p3552
ag1463
aa(lp3553
S'5373'
p3554
ag3062
aa(lp3555
S'4798'
p3556
ag2643
aa(lp3557
S'5146'
p3558
ag3057
aa(lp3559
S'6894'
p3560
ag2623
aa(lp3561
S'2337'
p3562
ag2225
aa(lp3563
S'2344'
p3564
ag2225
aa(lp3565
S'7396'
p3566
aS'6980'
p3567
aa(lp3568
S'7199'
p3569
aS'7202'
p3570
aa(lp3571
S'4787'
p3572
ag3081
aa(lp3573
S'4779'
p3574
aS'4777'
p3575
aa(lp3576
S'7246'
p3577
aS'7415'
p3578
aa(lp3579
S'5782'
p3580
ag2646
aa(lp3581
S'5164'
p3582
ag360
aa(lp3583
S'4780'
p3584
aS'4782'
p3585
aa(lp3586
S'7513'
p3587
aS'7479'
p3588
aa(lp3589
S'5646'
p3590
ag2670
aa(lp3591
S'5801'
p3592
aS'6904'
p3593
aa(lp3594
S'5503'
p3595
ag1501
aa(lp3596
S'5597'
p3597
ag1876
aa(lp3598
S'4768'
p3599
aS'4776'
p3600
aa(lp3601
S'5169'
p3602
ag1902
aa(lp3603
S'455'
p3604
ag1907
aa(lp3605
S'4987'
p3606
ag1907
aa(lp3607
S'4989'
p3608
ag1907
aa(lp3609
S'5683'
p3610
aS'6993'
p3611
aa(lp3612
S'2251'
p3613
ag405
aa(lp3614
S'8450'
p3615
ag405
aa(lp3616
S'2103'
p3617
ag405
aa(lp3618
S'2115'
p3619
ag405
aa(lp3620
S'1762'
p3621
ag405
aa(lp3622
S'2368'
p3623
ag405
aa(lp3624
S'7538'
p3625
ag3294
aa(lp3626
S'7582'
p3627
aS'7569'
p3628
aa(lp3629
S'2215'
p3630
ag2707
aa(lp3631
S'7720'
p3632
ag405
aa(lp3633
S'7803'
p3634
ag405
aa(lp3635
S'7882'
p3636
ag405
aa(lp3637
S'7601'
p3638
ag405
aa(lp3639
S'7865'
p3640
ag405
aa(lp3641
S'8066'
p3642
ag405
aa(lp3643
S'8097'
p3644
ag405
aa(lp3645
S'7586'
p3646
aS'7581'
p3647
aa(lp3648
S'2075'
p3649
ag405
aa(lp3650
S'671'
p3651
ag405
aa(lp3652
S'6823'
p3653
ag3144
aa(lp3654
S'2154'
p3655
ag405
aa(lp3656
S'1844'
p3657
ag405
aa(lp3658
S'2169'
p3659
ag405
aa(lp3660
S'2037'
p3661
ag405
aa(lp3662
S'1836'
p3663
ag405
aa(lp3664
S'2069'
p3665
ag405
aa(lp3666
S'2074'
p3667
ag405
aa(lp3668
S'2137'
p3669
ag405
aa(lp3670
S'2163'
p3671
ag405
aa(lp3672
S'2165'
p3673
ag405
aa(lp3674
S'2231'
p3675
ag405
aa(lp3676
S'2049'
p3677
ag405
aa(lp3678
S'2242'
p3679
ag405
aa(lp3680
S'2060'
p3681
ag405
aa(lp3682
S'1614'
p3683
ag405
aa(lp3684
S'1618'
p3685
ag405
aa(lp3686
S'1622'
p3687
ag405
aa(lp3688
S'1625'
p3689
ag405
aa(lp3690
S'1629'
p3691
ag405
aa(lp3692
S'1632'
p3693
ag405
aa(lp3694
S'1633'
p3695
ag405
aa(lp3696
S'1639'
p3697
ag405
aa(lp3698
S'1641'
p3699
ag405
aa(lp3700
S'1643'
p3701
ag405
aa(lp3702
S'1645'
p3703
ag405
aa(lp3704
S'1646'
p3705
ag405
aa(lp3706
S'1647'
p3707
ag405
aa(lp3708
S'1649'
p3709
ag405
aa(lp3710
S'1652'
p3711
ag405
aa(lp3712
S'1655'
p3713
ag405
aa(lp3714
S'1656'
p3715
ag405
aa(lp3716
S'1657'
p3717
ag405
aa(lp3718
S'1658'
p3719
ag405
aa(lp3720
S'1662'
p3721
ag405
aa(lp3722
S'1664'
p3723
ag405
aa(lp3724
S'1666'
p3725
ag405
aa(lp3726
S'1668'
p3727
ag405
aa(lp3728
S'1669'
p3729
ag405
aa(lp3730
S'1671'
p3731
ag405
aa(lp3732
S'1672'
p3733
ag405
aa(lp3734
S'1673'
p3735
ag405
aa(lp3736
S'1674'
p3737
ag405
aa(lp3738
S'1675'
p3739
ag405
aa(lp3740
S'1681'
p3741
ag405
aa(lp3742
S'1687'
p3743
ag405
aa(lp3744
S'1688'
p3745
ag405
aa(lp3746
S'1691'
p3747
ag405
aa(lp3748
S'1696'
p3749
ag405
aa(lp3750
S'1698'
p3751
ag405
aa(lp3752
S'1701'
p3753
ag405
aa(lp3754
S'2376'
p3755
ag405
aa(lp3756
S'2382'
p3757
ag405
aa(lp3758
S'2383'
p3759
ag405
aa(lp3760
S'2386'
p3761
ag405
aa(lp3762
S'2389'
p3763
ag405
aa(lp3764
S'2391'
p3765
ag405
aa(lp3766
S'2393'
p3767
ag405
aa(lp3768
S'2395'
p3769
ag405
aa(lp3770
S'2398'
p3771
ag405
aa(lp3772
S'2399'
p3773
ag405
aa(lp3774
S'2402'
p3775
ag405
aa(lp3776
S'2407'
p3777
ag405
aa(lp3778
S'7565'
p3779
ag405
aa(lp3780
S'7572'
p3781
ag405
aa(lp3782
S'7573'
p3783
ag405
aa(lp3784
S'7577'
p3785
ag405
aa(lp3786
S'1626'
p3787
ag405
aa(lp3788
S'1661'
p3789
ag405
aa(lp3790
S'1676'
p3791
ag405
aa(lp3792
S'1682'
p3793
ag405
aa(lp3794
S'2377'
p3795
ag405
aa(lp3796
S'2390'
p3797
ag405
aa(lp3798
S'2392'
p3799
ag405
aa(lp3800
S'2396'
p3801
ag405
aa(lp3802
S'2191'
p3803
ag405
aa(lp3804
S'7561'
p3805
ag3294
aa(lp3806
S'7529'
p3807
ag3294
aa(lp3808
S'7531'
p3809
ag3294
aa(lp3810
S'7535'
p3811
ag3294
aa(lp3812
S'7546'
p3813
ag3294
aa(lp3814
S'7540'
p3815
ag3309
aa(lp3816
S'7564'
p3817
ag3309
aa(lp3818
S'7527'
p3819
ag3309
aa(lp3820
S'7554'
p3821
ag3309
aa(lp3822
S'7559'
p3823
ag3316
aa(lp3824
S'7536'
p3825
ag3316
aa(lp3826
S'7476'
p3827
aS'7477'
p3828
aa(lp3829
S'6706'
p3830
ag3326
aa(lp3831
S'6680'
p3832
ag3326
aa(lp3833
S'6684'
p3834
ag3326
aa(lp3835
S'6687'
p3836
ag3326
aa(lp3837
S'7087'
p3838
ag928
aa(lp3839
S'5818'
p3840
ag928
aa(lp3841
S'6896'
p3842
ag928
aa(lp3843
S'5485'
p3844
ag928
aa(lp3845
S'8225'
p3846
aS'8224'
p3847
aa(lp3848
S'5886'
p3849
ag1807
aa(lp3850
S'5133'
p3851
ag1907
aa(lp3852
S'5108'
p3853
ag1902
aa(lp3854
S'454'
p3855
ag989
aa(lp3856
S'7035'
p3857
aS'7034'
p3858
aa(lp3859
S'7220'
p3860
ag998
aa(lp3861
S'5727'
p3862
aS'6956'
p3863
aa(lp3864
S'4772'
p3865
ag1955
aa(lp3866
S'4783'
p3867
ag1007
aa(lp3868
S'4792'
p3869
ag1007
aa(lp3870
S'4784'
p3871
ag1007
aa(lp3872
S'4791'
p3873
ag1007
aa(lp3874
S'7237'
p3875
aS'6933'
p3876
aa(lp3877
S'6999'
p3878
aS'6897'
p3879
aa(lp3880
S'1863'
p3881
ag3453
aa(lp3882
S'7761'
p3883
ag3388
aa(lp3884
S'7247'
p3885
aS'6937'
p3886
aa(lp3887
S'2227'
p3888
ag1015
aa(lp3889
S'7193'
p3890
ag1015
aa(lp3891
S'6735'
p3892
ag1015
aa(lp3893
S'6734'
p3894
ag1015
aa(lp3895
S'7270'
p3896
ag3398
aa(lp3897
S'6710'
p3898
aS'6713'
p3899
aa(lp3900
S'2221'
p3901
ag2707
aa(lp3902
S'2200'
p3903
ag2707
aa(lp3904
S'2206'
p3905
ag2707
aa(lp3906
S'1839'
p3907
ag405
aa(lp3908
S'1811'
p3909
ag405
aa(lp3910
S'1812'
p3911
ag405
aa(lp3912
S'2064'
p3913
ag405
aa(lp3914
S'2122'
p3915
ag405
aa(lp3916
S'2186'
p3917
ag405
aa(lp3918
S'2411'
p3919
ag405
aa(lp3920
S'2142'
p3921
ag405
aa(lp3922
S'2143'
p3923
ag405
aa(lp3924
S'2250'
p3925
ag405
aa(lp3926
S'2405'
p3927
ag405
aa(lp3928
S'7575'
p3929
ag405
aa(lp3930
S'2258'
p3931
ag405
aa(lp3932
S'6755'
p3933
ag405
aa(lp3934
S'2047'
p3935
ag405
aa(lp3936
S'2210'
p3937
ag405
aa(lp3938
S'7610'
p3939
ag405
aa(lp3940
S'1802'
p3941
ag1289
aa(lp3942
S'1803'
p3943
ag1289
aa(lp3944
S'6699'
p3945
aS'6693'
p3946
aa(lp3947
S'6703'
p3948
ag3946
aa(lp3949
S'6800'
p3950
ag1876
aa(lp3951
S'6862'
p3952
ag2920
aa(lp3953
S'5062'
p3954
ag989
aa(lp3955
S'5006'
p3956
ag1902
aa(lp3957
S'5513'
p3958
ag7
aa(lp3959
S'5474'
p3960
ag21
aa(lp3961
S'5479'
p3962
ag21
aa(lp3963
S'8072'
p3964
aS'8074'
p3965
aa(lp3966
S'6905'
p3967
ag4
aa(lp3968
S'1309'
p3969
ag3459
aa(lp3970
S'5828'
p3971
ag3462
aa(lp3972
S'5827'
p3973
ag3462
aa(lp3974
S'8226'
p3975
ag1044
aa(lp3976
S'5482'
p3977
ag21
aa(lp3978
S'4761'
p3979
ag2462
aa(lp3980
S'7400'
p3981
ag1110
aa(lp3982
S'7399'
p3983
ag1110
aa(lp3984
S'7397'
p3985
ag3487
aa(lp3986
S'8228'
p3987
ag1124
aa(lp3988
S'5744'
p3989
aS'7180'
p3990
aa(lp3991
S'1437'
p3992
ag2106
aa(lp3993
S'4836'
p3994
ag2529
aa(lp3995
S'4837'
p3996
ag2532
aa(lp3997
S'8583'
p3998
ag1250
aa(lp3999
S'6232'
p4000
aS'6233'
p4001
aa(lp4002
S'7212'
p4003
ag164
aa(lp4004
S'4781'
p4005
ag164
aa(lp4006
S'6845'
p4007
ag173
aa(lp4008
S'6832'
p4009
ag2180
aa(lp4010
S'1402'
p4011
ag2581
aa(lp4012
S'1404'
p4013
ag2581
aa(lp4014
S'1389'
p4015
ag2586
aa(lp4016
S'1400'
p4017
ag2586
aa(lp4018
S'1408'
p4019
ag2581
aa(lp4020
S'1388'
p4021
ag2586
aa(lp4022
S'1392'
p4023
ag2586
aa(lp4024
S'1394'
p4025
ag2586
aa(lp4026
S'1396'
p4027
ag2586
aa(lp4028
S'1382'
p4029
ag2586
aa(lp4030
S'7714'
p4031
aS'8002'
p4032
aa(lp4033
S'8173'
p4034
ag405
aa(lp4035
S'4804'
p4036
ag2643
aa(lp4037
S'6869'
p4038
aS'6875'
p4039
aa(lp4040
S'6878'
p4041
aS'6884'
p4042
aa(lp4043
S'6741'
p4044
aS'6737'
p4045
aa(lp4046
S'5469'
p4047
ag1466
aa(lp4048
S'4736'
p4049
ag2643
aa(lp4050
S'5786'
p4051
ag2646
aa(lp4052
S'4723'
p4053
aS'4728'
p4054
aa(lp4055
S'4759'
p4056
ag360
aa(lp4057
S'4817'
p4058
ag1488
aa(lp4059
S'5406'
p4060
ag1488
aa(lp4061
S'5647'
p4062
ag2670
aa(lp4063
S'4800'
p4064
aS'4797'
p4065
aa(lp4066
S'4985'
p4067
ag1504
aa(lp4068
S'4610'
p4069
ag2653
aa(lp4070
S'4814'
p4071
aS'5596'
p4072
aa(lp4073
S'7812'
p4074
ag405
aa(lp4075
S'8057'
p4076
ag405
aa(lp4077
S'8089'
p4078
ag405
aa(lp4079
S'8126'
p4080
ag405
aa(lp4081
S'2249'
p4082
ag405
aa(lp4083
S'8900'
p4084
aS'8901'
p4085
aa(lp4086
S'4819'
p4087
ag4072
aa(lp4088
S'5102'
p4089
ag1876
aa(lp4090
S'4762'
p4091
ag1876
aa(lp4092
S'4834'
p4093
ag1876
aa(lp4094
S'5097'
p4095
ag989
aa(lp4096
S'5173'
p4097
ag1907
aa(lp4098
S'6689'
p4099
ag3946
aa(lp4100
S'2085'
p4101
ag405
aa(lp4102
S'2100'
p4103
ag405
aa(lp4104
S'8681'
p4105
ag405
aa(lp4106
S'473'
p4107
ag405
aa(lp4108
S'7583'
p4109
ag3628
aa(lp4110
S'7584'
p4111
ag3628
aa(lp4112
S'7585'
p4113
ag3628
aa(lp4114
S'2216'
p4115
ag2707
aa(lp4116
S'7587'
p4117
ag3647
aa(lp4118
S'6752'
p4119
ag405
aa(lp4120
S'2113'
p4121
ag405
aa(lp4122
S'1692'
p4123
ag405
aa(lp4124
S'1610'
p4125
ag405
aa(lp4126
S'2245'
p4127
ag405
aa(lp4128
S'2401'
p4129
ag405
aa(lp4130
S'2197'
p4131
ag405
aa(lp4132
S'2134'
p4133
ag405
aa(lp4134
S'2387'
p4135
ag405
aa(lp4136
S'2406'
p4137
ag405
aa(lp4138
S'1663'
p4139
ag405
aa(lp4140
S'1607'
p4141
ag405
aa(lp4142
S'1611'
p4143
ag405
aa(lp4144
S'1616'
p4145
ag405
aa(lp4146
S'1619'
p4147
ag405
aa(lp4148
S'1624'
p4149
ag405
aa(lp4150
S'1627'
p4151
ag405
aa(lp4152
S'1628'
p4153
ag405
aa(lp4154
S'1631'
p4155
ag405
aa(lp4156
S'1634'
p4157
ag405
aa(lp4158
S'1635'
p4159
ag405
aa(lp4160
S'1636'
p4161
ag405
aa(lp4162
S'1637'
p4163
ag405
aa(lp4164
S'1638'
p4165
ag405
aa(lp4166
S'1650'
p4167
ag405
aa(lp4168
S'1653'
p4169
ag405
aa(lp4170
S'1659'
p4171
ag405
aa(lp4172
S'1665'
p4173
ag405
aa(lp4174
S'1667'
p4175
ag405
aa(lp4176
S'1679'
p4177
ag405
aa(lp4178
S'1693'
p4179
ag405
aa(lp4180
S'1694'
p4181
ag405
aa(lp4182
S'2375'
p4183
ag405
aa(lp4184
S'2381'
p4185
ag405
aa(lp4186
S'2388'
p4187
ag405
aa(lp4188
S'2394'
p4189
ag405
aa(lp4190
S'7568'
p4191
ag405
aa(lp4192
S'7576'
p4193
ag405
aa(lp4194
S'1654'
p4195
ag405
aa(lp4196
S'2378'
p4197
ag405
aa(lp4198
S'1609'
p4199
ag405
aa(lp4200
S'7555'
p4201
ag3294
aa(lp4202
S'7549'
p4203
ag3309
aa(lp4204
S'7550'
p4205
ag3316
aa(lp4206
S'6701'
p4207
ag3326
aa(lp4208
S'6691'
p4209
ag3326
aa(lp4210
S'6694'
p4211
ag3326
aa(lp4212
S'5423'
p4213
aS'5666'
p4214
aa(lp4215
S'5429'
p4216
ag4214
aa(lp4217
S'5809'
p4218
ag1876
aa(lp4219
S'5709'
p4220
ag2362
aa(lp4221
S'5761'
p4222
aS'5367'
p4223
aa(lp4224
S'4978'
p4225
ag1907
aa(lp4226
S'7509'
p4227
ag1907
aa(lp4228
S'5026'
p4229
ag989
aa(lp4230
S'4968'
p4231
ag1907
aa(lp4232
S'5684'
p4233
ag1964
aa(lp4234
S'4773'
p4235
ag1007
aa(lp4236
S'4795'
p4237
ag1007
aa(lp4238
S'2046'
p4239
aS'2057'
p4240
aa(lp4241
S'5063'
p4242
ag2218
aa(lp4243
S'5060'
p4244
ag2218
aa(lp4245
S'6886'
p4246
ag2623
aa(lp4247
S'7269'
p4248
ag3398
aa(lp4249
S'5042'
p4250
ag360
aa(lp4251
S'5044'
p4252
ag360
aa(lp4253
S'5732'
p4254
ag360
aa(lp4255
S'1827'
p4256
ag405
aa(lp4257
S'7890'
p4258
ag405
aa(lp4259
S'6745'
p4260
ag405
aa(lp4261
S'2272'
p4262
ag405
aa(lp4263
S'2256'
p4264
ag405
aa(lp4265
S'2189'
p4266
ag405
aa(lp4267
S'1816'
p4268
ag405
aa(lp4269
S'2244'
p4270
ag405
aa(lp4271
S'2123'
p4272
ag405
aa(lp4273
S'2130'
p4274
ag405
aa(lp4275
S'1623'
p4276
ag405
aa(lp4277
S'1613'
p4278
ag405
aa(lp4279
S'1809'
p4280
ag405
aa(lp4281
S'2036'
p4282
ag405
aa(lp4283
S'2267'
p4284
ag405
aa(lp4285
S'2253'
p4286
ag405
aa(lp4287
S'1825'
p4288
ag405
aa(lp4289
S'6751'
p4290
ag405
aa(lp4291
S'2151'
p4292
aS'2152'
p4293
aa(lp4294
S'7251'
p4295
aS'6940'
p4296
aa(lp4297
S'6738'
p4298
aS'6742'
p4299
aa(lp4300
S'5808'
p4301
ag1876
aa(lp4302
S'6859'
p4303
ag2920
aa(lp4304
S'6925'
p4305
ag2875
aa(lp4306
S'5002'
p4307
ag989
aa(lp4308
S'5050'
p4309
ag989
aa(lp4310
S'1993'
p4311
ag3022
aa(lp4312
S'1869'
p4313
ag1015
aa(lp4314
S'4813'
p4315
ag3456
aa(lp4316
S'4816'
p4317
ag3456
aa(lp4318
S'4810'
p4319
ag3456
aa(lp4320
S'5824'
p4321
ag3462
aa(lp4322
S'5481'
p4323
ag21
aa(lp4324
S'5454'
p4325
ag3471
aa(lp4326
S'5451'
p4327
ag3471
aa(lp4328
S'5414'
p4329
ag3471
aa(lp4330
S'4763'
p4331
ag2462
aa(lp4332
S'4765'
p4333
ag2462
aa(lp4334
S'6721'
p4335
ag3490
aa(lp4336
S'994'
p4337
aS'1006'
p4338
aa(lp4339
S'8536'
p4340
ag111
aa(lp4341
S'972'
p4342
aS'969'
p4343
aa(lp4344
S'5259'
p4345
ag1295
aa(lp4346
S'5855'
p4347
ag1273
aa(lp4348
S'6313'
p4349
ag191
aa(lp4350
S'5781'
p4351
ag241
aa(lp4352
S'6297'
p4353
ag258
aa(lp4354
S'2007'
p4355
ag2571
aa(lp4356
S'1397'
p4357
ag2586
aa(lp4358
S'7979'
p4359
ag2605
aa(lp4360
S'4734'
p4361
ag2643
aa(lp4362
S'2341'
p4363
ag303
aa(lp4364
S'4748'
p4365
ag2646
aa(lp4366
S'4747'
p4367
ag2646
aa(lp4368
S'4756'
p4369
ag360
aa(lp4370
S'5699'
p4371
ag365
aa(lp4372
S'5501'
p4373
ag1501
aa(lp4374
S'5627'
p4375
ag3091
aa(lp4376
S'5717'
p4377
ag1501
aa(lp4378
S'5776'
p4379
ag1504
aa(lp4380
S'5749'
p4381
ag1504
aa(lp4382
S'5730'
p4383
aS'7523'
p4384
aa(lp4385
S'2109'
p4386
ag405
aa(lp4387
S'7669'
p4388
ag405
aa(lp4389
S'8043'
p4390
ag405
aa(lp4391
S'4824'
p4392
ag1876
aa(lp4393
S'5500'
p4394
ag989
aa(lp4395
S'5134'
p4396
ag1925
aa(lp4397
S'2034'
p4398
ag405
aa(lp4399
S'7544'
p4400
ag3294
aa(lp4401
S'7530'
p4402
ag3309
aa(lp4403
S'9048'
p4404
ag405
aa(lp4405
S'2030'
p4406
ag405
aa(lp4407
S'2222'
p4408
ag2707
aa(lp4409
S'1612'
p4410
ag405
aa(lp4411
S'1644'
p4412
ag405
aa(lp4413
S'1608'
p4414
ag405
aa(lp4415
S'5682'
p4416
ag1775
aa(lp4417
S'5754'
p4418
ag1775
aa(lp4419
S'5755'
p4420
ag1775
aa(lp4421
S'5752'
p4422
ag2834
aa(lp4423
S'5712'
p4424
ag928
aa(lp4425
S'1894'
p4426
aS'1897'
p4427
aa(lp4428
S'5797'
p4429
ag1876
aa(lp4430
S'4976'
p4431
ag1907
aa(lp4432
S'5024'
p4433
ag1907
aa(lp4434
S'4775'
p4435
ag1007
aa(lp4436
S'5784'
p4437
aS'7351'
p4438
aa(lp4439
S'5747'
p4440
ag2646
aa(lp4441
S'1821'
p4442
ag405
aa(lp4443
S'2039'
p4444
ag405
aa(lp4445
S'1834'
p4446
ag405
aa(lp4447
S'2128'
p4448
ag405
aa(lp4449
S'2217'
p4450
ag405
aa(lp4451
S'1838'
p4452
ag405
aa(lp4453
S'2105'
p4454
ag405
aa(lp4455
S'2173'
p4456
ag405
aa(lp4457
S'5715'
p4458
ag1876
aa(lp4459
S'5035'
p4460
ag1907
aa(lp4461
S'5810'
p4462
ag1907
aa(lp4463
S'5027'
p4464
ag989
aa(lp4465
S'5014'
p4466
ag1907
aa(lp4467
S'5005'
p4468
ag1902
aa(lp4469
S'5000'
p4470
ag989
aa(lp4471
S'5737'
p4472
ag1907
aa(lp4473
S'4999'
p4474
ag989
aa(lp4475
S'1864'
p4476
ag3453
aa(lp4477
S'1861'
p4478
ag3453
aa(lp4479
S'5476'
p4480
ag21
aa(lp4481
S'5478'
p4482
ag21
aa(lp4483
S'5442'
p4484
ag3471
aa(lp4485
S'5456'
p4486
ag3471
aa(lp4487
S'5439'
p4488
ag3471
aa(lp4489
S'4739'
p4490
aS'4753'
p4491
aa(lp4492
S'5056'
p4493
ag1020
aa(lp4494
S'4835'
p4495
ag2529
aa(lp4496
S'7805'
p4497
ag1253
aa(lp4498
S'4831'
p4499
ag2532
aa(lp4500
S'6212'
p4501
aS'6211'
p4502
aa(lp4503
S'1791'
p4504
ag1289
aa(lp4505
S'6838'
p4506
ag173
aa(lp4507
S'1135'
p4508
ag281
aa(lp4509
S'8740'
p4510
aS'8736'
p4511
aa(lp4512
S'5790'
p4513
aS'6964'
p4514
aa(lp4515
S'5125'
p4516
aS'5129'
p4517
aa(lp4518
S'4805'
p4519
ag2643
aa(lp4520
S'4806'
p4521
ag2643
aa(lp4522
S'2333'
p4523
ag2225
aa(lp4524
S'438'
p4525
ag2218
aa(lp4526
S'2327'
p4527
ag2225
aa(lp4528
S'6733'
p4529
ag4299
aa(lp4530
S'8185'
p4531
ag405
aa(lp4532
S'7799'
p4533
ag405
aa(lp4534
S'7656'
p4535
ag405
aa(lp4536
S'7897'
p4537
ag405
aa(lp4538
S'4767'
p4539
ag3600
aa(lp4540
S'4774'
p4541
ag1888
aa(lp4542
S'4990'
p4543
ag1907
aa(lp4544
S'5124'
p4545
ag4517
aa(lp4546
S'1847'
p4547
ag405
aa(lp4548
S'1770'
p4549
ag405
aa(lp4550
S'1773'
p4551
ag405
aa(lp4552
S'2070'
p4553
ag405
aa(lp4554
S'1642'
p4555
ag405
aa(lp4556
S'1617'
p4557
ag405
aa(lp4558
S'1700'
p4559
ag405
aa(lp4560
S'1660'
p4561
ag405
aa(lp4562
S'5794'
p4563
ag1775
aa(lp4564
S'5795'
p4565
ag1775
aa(lp4566
S'5766'
p4567
ag928
aa(lp4568
S'5714'
p4569
ag928
aa(lp4570
S'7334'
p4571
aS'6962'
p4572
aa(lp4573
S'7703'
p4574
aS'7705'
p4575
aa(lp4576
S'4793'
p4577
ag1007
aa(lp4578
S'2035'
p4579
ag4240
aa(lp4580
S'5055'
p4581
ag2218
aa(lp4582
S'7647'
p4583
ag2623
aa(lp4584
S'6717'
p4585
ag3490
aa(lp4586
S'5708'
p4587
ag4384
aa(lp4588
S'2230'
p4589
ag405
aa(lp4590
S'2114'
p4591
ag405
aa(lp4592
S'6760'
p4593
ag405
aa(lp4594
S'2033'
p4595
ag405
aa(lp4596
S'5807'
p4597
ag4223
aa(lp4598
S'5048'
p4599
ag989
aa(lp4600
S'5017'
p4601
ag989
aa(lp4602
S'5046'
p4603
ag989
aa(lp4604
S'5038'
p4605
aS'5036'
p4606
aa(lp4607
S'5449'
p4608
ag3471
aa(lp4609
S'4807'
p4610
ag3456
aa(lp4611
S'6084'
p4612
ag1070
aa(lp4613
S'5511'
p4614
ag7
aa(lp4615
S'5480'
p4616
ag21
aa(lp4617
S'5443'
p4618
ag3471
aa(lp4619
S'5441'
p4620
ag3471
aa(lp4621
S'5446'
p4622
ag3471
aa(lp4623
S'6274'
p4624
ag2048
aa(lp4625
S'5072'
p4626
ag1020
aa(lp4627
S'1028'
p4628
ag1165
aa(lp4629
S'6227'
p4630
ag1193
aa(lp4631
S'4825'
p4632
ag2532
aa(lp4633
S'1794'
p4634
ag1289
aa(lp4635
S'7341'
p4636
aS'6963'
p4637
aa(lp4638
S'5431'
p4639
ag4214
aa(lp4640
S'4799'
p4641
ag2643
aa(lp4642
S'2349'
p4643
ag303
aa(lp4644
S'435'
p4645
ag2218
aa(lp4646
S'4760'
p4647
ag360
aa(lp4648
S'4998'
p4649
ag1501
aa(lp4650
S'7886'
p4651
ag405
aa(lp4652
S'5115'
p4653
aS'5118'
p4654
aa(lp4655
S'6686'
p4656
ag3326
aa(lp4657
S'5428'
p4658
ag4214
aa(lp4659
S'4827'
p4660
aS'4826'
p4661
aa(lp4662
S'652'
p4663
ag405
aa(lp4664
S'2367'
p4665
ag405
aa(lp4666
S'1606'
p4667
ag405
aa(lp4668
S'2397'
p4669
ag405
aa(lp4670
S'6692'
p4671
ag3326
aa(lp4672
S'5132'
p4673
ag2266
aa(lp4674
S'6440'
p4675
ag967
aa(lp4676
S'5130'
p4677
ag1876
aa(lp4678
S'4770'
p4679
ag1955
aa(lp4680
S'4771'
p4681
ag1955
aa(lp4682
S'4821'
p4683
aS'4741'
p4684
aa(lp4685
S'5061'
p4686
ag2218
aa(lp4687
S'2136'
p4688
ag405
aa(lp4689
S'1815'
p4690
ag405
aa(lp4691
S'6750'
p4692
ag405
aa(lp4693
S'1837'
p4694
aS'1849'
p4695
aa(lp4696
S'2121'
p4697
ag405
aa(lp4698
S'5778'
p4699
aS'7524'
p4700
aa(lp4701
S'6759'
p4702
ag405
aa(lp4703
S'5018'
p4704
ag989
aa(lp4705
S'5054'
p4706
ag989
aa(lp4707
S'5016'
p4708
ag989
aa(lp4709
S'5823'
p4710
ag3462
aa(lp4711
S'4735'
p4712
ag2643
aa(lp4713
S'5413'
p4714
ag365
aa(lp4715
S'7622'
p4716
ag405
aa(lp4717
S'7811'
p4718
ag405
aa(lp4719
S'7833'
p4720
ag405
aa(lp4721
S'7841'
p4722
ag405
aa(lp4723
S'8050'
p4724
ag405
aa(lp4725
S'7616'
p4726
ag405
aa(lp4727
S'8024'
p4728
ag405
aa(lp4729
S'2226'
p4730
ag2707
aa(lp4731
S'6453'
p4732
ag920
aa(lp4733
S'5777'
p4734
aS'5756'
p4735
aa(lp4736
S'7241'
p4737
aS'7242'
p4738
aa(lp4739
S'5411'
p4740
aS'5408'
p4741
aa(lp4742
S'5768'
p4743
ag4700
aa(lp4744
S'2190'
p4745
ag405
aa(lp4746
S'6681'
p4747
ag3326
aa(lp4748
S'5815'
p4749
ag1775
aa(lp4750
S'5015'
p4751
ag1907
aa(lp4752
S'5457'
p4753
ag3471
aa(lp4754
S'8114'
p4755
ag44
aa(lp4756
S'4743'
p4757
ag4491
aa(lp4758
S'5440'
p4759
aS'5447'
p4760
aa(lp4761
S'8870'
p4762
aS'8871'
p4763
aa(lp4764
S'5757'
p4765
ag158
aa(lp4766
S'5430'
p4767
ag4214
aa(lp4768
S'5425'
p4769
ag1488
aa(lp4770
S'5700'
p4771
ag365
aa(lp4772
S'5436'
p4773
ag365
aa(lp4774
S'5438'
p4775
ag365
aa(lp4776
S'5393'
p4777
ag1504
aa(lp4778
S'6723'
p4779
aS'6731'
p4780
aa(lp4781
S'7638'
p4782
ag405
aa(lp4783
S'7925'
p4784
ag405
aa(lp4785
S'8032'
p4786
ag405
aa(lp4787
S'8049'
p4788
ag405
aa(lp4789
S'7541'
p4790
ag3309
aa(lp4791
S'8502'
p4792
ag405
aa(lp4793
S'6912'
p4794
aS'6015'
p4795
aa(lp4796
S'2096'
p4797
ag405
aa(lp4798
S'4809'
p4799
ag3456
aa(lp4800
S'7631'
p4801
aS'7620'
p4802
aa(lp4803
S'5720'
p4804
ag4
aa(lp4805
S'5719'
p4806
ag4
aa(lp4807
S'5822'
p4808
ag3462
aa(lp4809
S'5460'
p4810
ag4760
aa(lp4811
S'1385'
p4812
ag2586
aa(lp4813
S'5409'
p4814
ag4741
aa(lp4815
S'5189'
p4816
ag1504
aa(lp4817
S'8039'
p4818
ag405
aa(lp4819
S'8175'
p4820
ag405
aa(lp4821
S'8062'
p4822
ag405
aa(lp4823
S'8183'
p4824
aS'8187'
p4825
aa(lp4826
S'8107'
p4827
ag405
aa(lp4828
S'4766'
p4829
ag3600
aa(lp4830
S'2403'
p4831
ag405
aa(lp4832
S'1620'
p4833
ag405
aa(lp4834
S'5838'
p4835
ag992
aa(lp4836
S'7852'
p4837
aS'7850'
p4838
aa(lp4839
S'2270'
p4840
ag405
aa(lp4841
S'2183'
p4842
ag405
aa(lp4843
S'6827'
p4844
ag2180
aa(lp4845
S'5448'
p4846
ag4760
aa(lp4847
S'5467'
p4848
aS'5466'
p4849
aa(lp4850
S'8034'
p4851
aS'8035'
p4852
aa(lp4853
S'5455'
p4854
ag4760
aa(lp4855
S'1933'
p4856
ag121
aa(lp4857
S'7831'
p4858
ag1253
aa(lp4859
S'7837'
p4860
aS'7838'
p4861
aa(lp4862
S'7678'
p4863
ag405
aa(lp4864
S'7663'
p4865
ag405
aa(lp4866
S'4745'
p4867
aS'4738'
p4868
aa(lp4869
S'8991'
p4870
ag899
aa(lp4871
S'703'
p4872
ag405
aa(lp4873
S'6698'
p4874
ag3326
aa(lp4875
S'5723'
p4876
ag1888
aa(lp4877
S'6456'
p4878
ag1981
aa(lp4879
S'2273'
p4880
ag405
aa(lp4881
S'2233'
p4882
ag405
aa(lp4883
S'5011'
p4884
ag989
aa(lp4885
S'4808'
p4886
ag3456
aa(lp4887
S'7908'
p4888
ag2024
aa(lp4889
S'8132'
p4890
ag1102
aa(lp4891
S'7617'
p4892
ag4802
aa(lp4893
S'8071'
p4894
ag3965
aa(lp4895
S'5437'
p4896
ag365
aa(lp4897
S'7027'
p4898
ag3593
aa(lp4899
S'7888'
p4900
ag405
aa(lp4901
S'5047'
p4902
ag989
aa(lp4903
S'4726'
p4904
ag4054
aa(lp4905
S'8042'
p4906
ag405
aa(lp4907
S'5459'
p4908
ag3471
aa(lp4909
S'7962'
p4910
ag2024
aa(lp4911
S'7693'
p4912
ag3144
aa(lp4913
S'7614'
p4914
ag405
aa(lp4915
S'7767'
p4916
ag405
aa(lp4917
S'8058'
p4918
ag405
aa(lp4919
S'2079'
p4920
ag405
aa(lp4921
S'6454'
p4922
ag1981
aa(lp4923
S'5401'
p4924
ag1787
aa(lp4925
S'1806'
p4926
ag1289
aa(lp4927
S'2052'
p4928
ag405
aa(lp4929
S'1990'
p4930
ag908
aa(lp4931
S'577'
p4932
ag57
aa(lp4933
S'5458'
p4934
ag3471
aa(lp4935
S'7977'
p4936
ag2024
aa(lp4937
S'7938'
p4938
ag2024
aa(lp4939
S'8009'
p4940
ag4852
aa(lp4941
S'1900'
p4942
ag1810
aa(lp4943
S'5435'
p4944
ag365
aa(lp4945
S'7849'
p4946
ag405
aa(lp4947
S'8163'
p4948
ag405
aa(lp4949
S'7815'
p4950
aS'7814'
p4951
aa(lp4952
S'2043'
p4953
ag405
aa(lp4954
S'5465'
p4955
ag4849
aa(lp4956
S'4737'
p4957
ag4868
aa(lp4958
S'7629'
p4959
ag405
aa(lp4960
S'8030'
p4961
ag405
aa(lp4962
S'7818'
p4963
aS'7817'
p4964
aa(lp4965
S'7947'
p4966
ag2024
aa(lp4967
S'2302'
p4968
ag216
aa(lp4969
S'7960'
p4970
ag2024
aa(lp4971
S'7438'
p4972
aS'6941'
p4973
aa(lp4974
S'5412'
p4975
ag4741
aa(lp4976
S'8037'
p4977
ag405
aa(lp4978
S'8007'
p4979
ag2024
aa(lp4980
S'5410'
p4981
ag4741
aa(lp4982
S'1442'
p4983
ag1193
aa(lp4984
S'5175'
p4985
ag2646
aa(lp4986
S'8028'
p4987
ag405
aa(lp4988
S'7627'
p4989
ag405
aa(lp4990
S'7874'
p4991
ag405
aa(lp4992
S'7801'
p4993
ag405
aa(lp4994
S'8104'
p4995
ag405
aa(lp4996
S'2269'
p4997
ag405
aa(lp4998
S'1801'
p4999
aS'1800'
p5000
aa(lp5001
S'1856'
p5002
ag3453
aa(lp5003
S'4749'
p5004
ag2646
aa(lp5005
S'49'
p5006
aS'44'
p5007
aa(lp5008
S'62'
p5009
ag5007
aa(lp5010
S'7644'
p5011
ag405
aa(lp5012
S'7646'
p5013
ag405
aa(lp5014
S'8044'
p5015
ag3249
aa(lp5016
S'7919'
p5017
ag2024
aa(lp5018
S'8395'
p5019
ag292
aa(lp5020
S'1710'
p5021
ag405
aa(lp5022
S'8029'
p5023
ag405
aa(lp5024
S'8366'
p5025
ag986
aa(lp5026
S'8245'
p5027
ag1015
aa(lp5028
S'246'
p5029
aS'247'
p5030
aa(lp5031
S'236'
p5032
ag5030
aa(lp5033
S'5416'
p5034
ag365
aa(lp5035
S'8290'
p5036
ag1474
aa(lp5037
S'56'
p5038
ag5007
aa(lp5039
S'7856'
p5040
ag405
aa(lp5041
S'8125'
p5042
ag405
aa(lp5043
S'8270'
p5044
aS'7003'
p5045
aa(lp5046
S'252'
p5047
aS'245'
p5048
aa(lp5049
S'5008'
p5050
ag989
aa(lp5051
S'2056'
p5052
ag4240
aa(lp5053
S'7875'
p5054
ag405
aa(lp5055
S'5764'
p5056
ag4700
aa(lp5057
S'2054'
p5058
ag405
aa(lp5059
S'300'
p5060
aS'294'
p5061
aa(lp5062
S'304'
p5063
ag5061
aa(lp5064
S'4699'
p5065
ag2646
aa(lp5066
S'5403'
p5067
aS'5415'
p5068
aa(lp5069
S'37'
p5070
ag5007
aa(lp5071
S'46'
p5072
ag5007
aa(lp5073
S'8048'
p5074
ag405
aa(lp5075
S'8233'
p5076
ag405
aa(lp5077
S'199'
p5078
aS'197'
p5079
aa(lp5080
S'8411'
p5081
ag986
aa(lp5082
S'7939'
p5083
ag2024
aa(lp5084
S'2032'
p5085
ag405
aa(lp5086
S'2408'
p5087
ag405
aa(lp5088
S'7992'
p5089
ag2024
aa(lp5090
S'8344'
p5091
ag78
aa(lp5092
S'8257'
p5093
aS'8222'
p5094
aa(lp5095
S'325'
p5096
ag5061
aa(lp5097
S'4696'
p5098
ag2646
aa(lp5099
S'65'
p5100
ag5007
aa(lp5101
S'50'
p5102
ag5007
aa(lp5103
S'7602'
p5104
ag405
aa(lp5105
S'7892'
p5106
ag405
aa(lp5107
S'8372'
p5108
ag405
aa(lp5109
S'8377'
p5110
ag928
aa(lp5111
S'8254'
p5112
ag3611
aa(lp5113
S'8419'
p5114
aS'7412'
p5115
aa(lp5116
S'8271'
p5117
aS'7036'
p5118
aa(lp5119
S'8389'
p5120
ag2405
aa(lp5121
S'6749'
p5122
ag405
aa(lp5123
S'8258'
p5124
ag1077
aa(lp5125
S'8380'
p5126
aS'7327'
p5127
aa(lp5128
S'8329'
p5129
aS'7217'
p5130
aa(lp5131
S'240'
p5132
ag5030
aa(lp5133
S'8274'
p5134
aS'7063'
p5135
aa(lp5136
S'286'
p5137
ag5061
aa(lp5138
S'31'
p5139
aS'67'
p5140
aa(lp5141
S'6977'
p5142
aS'7383'
p5143
aa(lp5144
S'7743'
p5145
ag405
aa(lp5146
S'8297'
p5147
aS'7144'
p5148
aa(lp5149
S'8428'
p5150
ag928
aa(lp5151
S'221'
p5152
ag5079
aa(lp5153
S'8314'
p5154
aS'7182'
p5155
aa(lp5156
S'105'
p5157
aS'145'
p5158
aa(lp5159
S'2097'
p5160
ag405
aa(lp5161
S'7921'
p5162
ag2024
aa(lp5163
S'5453'
p5164
ag4760
aa(lp5165
S'7821'
p5166
ag1253
aa(lp5167
S'276'
p5168
aS'296'
p5169
aa(lp5170
S'5765'
p5171
aS'6130'
p5172
aa(lp5173
S'8239'
p5174
aS'7500'
p5175
aa(lp5176
S'8264'
p5177
ag3041
aa(lp5178
S'101'
p5179
aS'111'
p5180
aa(lp5181
S'319'
p5182
ag5061
aa(lp5183
S'336'
p5184
ag5061
aa(lp5185
S'41'
p5186
ag5140
aa(lp5187
S'58'
p5188
ag5140
aa(lp5189
S'42'
p5190
aS'57'
p5191
aa(lp5192
S'59'
p5193
ag5140
aa(lp5194
S'7665'
p5195
ag405
aa(lp5196
S'29'
p5197
ag5079
aa(lp5198
S'239'
p5199
aS'254'
p5200
aa(lp5201
S'251'
p5202
ag5048
aa(lp5203
S'113'
p5204
ag5048
aa(lp5205
S'234'
p5206
ag5158
aa(lp5207
S'143'
p5208
ag5158
aa(lp5209
S'2051'
p5210
ag405
aa(lp5211
S'7707'
p5212
ag4802
aa(lp5213
S'8259'
p5214
ag1077
aa(lp5215
S'308'
p5216
aS'307'
p5217
aa(lp5218
S'313'
p5219
ag5217
aa(lp5220
S'8355'
p5221
aS'7296'
p5222
aa(lp5223
S'8351'
p5224
aS'7285'
p5225
aa(lp5226
S'8324'
p5227
ag164
aa(lp5228
S'4988'
p5229
aS'4979'
p5230
aa(lp5231
S'8394'
p5232
ag292
aa(lp5233
S'8285'
p5234
aS'5881'
p5235
aa(lp5236
S'112'
p5237
ag5180
aa(lp5238
S'148'
p5239
ag5180
aa(lp5240
S'352'
p5241
ag5061
aa(lp5242
S'14'
p5243
aS'12'
p5244
aa(lp5245
S'16'
p5246
ag5140
aa(lp5247
S'52'
p5248
ag5007
aa(lp5249
S'73'
p5250
ag5007
aa(lp5251
S'25'
p5252
ag5007
aa(lp5253
S'55'
p5254
ag5007
aa(lp5255
S'4686'
p5256
ag365
aa(lp5257
S'4611'
p5258
ag2653
aa(lp5259
S'7618'
p5260
ag405
aa(lp5261
S'241'
p5262
ag928
aa(lp5263
S'233'
p5264
ag5079
aa(lp5265
S'192'
p5266
ag5079
aa(lp5267
S'195'
p5268
ag5079
aa(lp5269
S'218'
p5270
ag5079
aa(lp5271
S'237'
p5272
ag5200
aa(lp5273
S'114'
p5274
ag5048
aa(lp5275
S'155'
p5276
ag5048
aa(lp5277
S'107'
p5278
ag5048
aa(lp5279
S'117'
p5280
ag5048
aa(lp5281
S'8375'
p5282
aS'7324'
p5283
aa(lp5284
S'8374'
p5285
ag998
aa(lp5286
S'4894'
p5287
ag4684
aa(lp5288
S'284'
p5289
ag5169
aa(lp5290
S'285'
p5291
ag5169
aa(lp5292
S'279'
p5293
ag5169
aa(lp5294
S'118'
p5295
aS'127'
p5296
aa(lp5297
S'4841'
p5298
ag2529
aa(lp5299
S'129'
p5300
ag5180
aa(lp5301
S'384'
p5302
ag5061
aa(lp5303
S'303'
p5304
ag5061
aa(lp5305
S'4617'
p5306
ag2646
aa(lp5307
S'4618'
p5308
ag2646
aa(lp5309
S'4619'
p5310
ag2646
aa(lp5311
S'4685'
p5312
ag2646
aa(lp5313
S'353'
p5314
aS'354'
p5315
aa(lp5316
S'8252'
p5317
aS'6988'
p5318
aa(lp5319
S'22'
p5320
ag5140
aa(lp5321
S'40'
p5322
ag5140
aa(lp5323
S'4922'
p5324
aS'4927'
p5325
aa(lp5326
S'18'
p5327
ag5007
aa(lp5328
S'53'
p5329
ag5007
aa(lp5330
S'7864'
p5331
ag405
aa(lp5332
S'228'
p5333
ag5079
aa(lp5334
S'398'
p5335
aS'397'
p5336
aa(lp5337
S'250'
p5338
ag5200
aa(lp5339
S'248'
p5340
ag5048
aa(lp5341
S'110'
p5342
ag5048
aa(lp5343
S'125'
p5344
ag5048
aa(lp5345
S'400'
p5346
ag1876
aa(lp5347
S'8424'
p5348
ag2875
aa(lp5349
S'142'
p5350
aS'123'
p5351
aa(lp5352
S'8275'
p5353
aS'7060'
p5354
aa(lp5355
S'93'
p5356
aS'95'
p5357
aa(lp5358
S'238'
p5359
ag5048
aa(lp5360
S'7916'
p5361
ag2024
aa(lp5362
S'8376'
p5363
ag1070
aa(lp5364
S'4945'
p5365
ag2462
aa(lp5366
S'96'
p5367
aS'97'
p5368
aa(lp5369
S'315'
p5370
aS'82'
p5371
aa(lp5372
S'119'
p5373
ag5180
aa(lp5374
S'136'
p5375
ag5180
aa(lp5376
S'150'
p5377
ag5180
aa(lp5378
S'344'
p5379
ag5061
aa(lp5380
S'4620'
p5381
ag2646
aa(lp5382
S'4613'
p5383
ag2646
aa(lp5384
S'4682'
p5385
ag2646
aa(lp5386
S'4695'
p5387
ag2646
aa(lp5388
S'4698'
p5389
ag2646
aa(lp5390
S'4702'
p5391
ag2646
aa(lp5392
S'355'
p5393
ag5315
aa(lp5394
S'340'
p5395
aS'342'
p5396
aa(lp5397
S'33'
p5398
ag5140
aa(lp5399
S'135'
p5400
aS'104'
p5401
aa(lp5402
S'350'
p5403
ag5401
aa(lp5404
S'4926'
p5405
ag5325
aa(lp5406
S'71'
p5407
ag5007
aa(lp5408
S'4851'
p5409
ag1501
aa(lp5410
S'4869'
p5411
ag1501
aa(lp5412
S'4868'
p5413
ag1504
aa(lp5414
S'4864'
p5415
ag1501
aa(lp5416
S'226'
p5417
ag5079
aa(lp5418
S'102'
p5419
ag5048
aa(lp5420
S'130'
p5421
ag5048
aa(lp5422
S'115'
p5423
ag5048
aa(lp5424
S'4694'
p5425
ag1955
aa(lp5426
S'4710'
p5427
ag1955
aa(lp5428
S'109'
p5429
ag5158
aa(lp5430
S'4930'
p5431
aS'4931'
p5432
aa(lp5433
S'7887'
p5434
ag405
aa(lp5435
S'7653'
p5436
ag4802
aa(lp5437
S'4666'
p5438
ag4491
aa(lp5439
S'4949'
p5440
ag4491
aa(lp5441
S'4653'
p5442
ag2462
aa(lp5443
S'103'
p5444
ag5296
aa(lp5445
S'4634'
p5446
aS'4632'
p5447
aa(lp5448
S'4717'
p5449
ag5447
aa(lp5450
S'4679'
p5451
ag2646
aa(lp5452
S'4701'
p5453
ag2646
aa(lp5454
S'4703'
p5455
ag2646
aa(lp5456
S'38'
p5457
ag5140
aa(lp5458
S'4721'
p5459
ag4054
aa(lp5460
S'47'
p5461
ag5007
aa(lp5462
S'39'
p5463
ag5007
aa(lp5464
S'4870'
p5465
ag1501
aa(lp5466
S'181'
p5467
ag5079
aa(lp5468
S'131'
p5469
ag5048
aa(lp5470
S'144'
p5471
ag5048
aa(lp5472
S'4901'
p5473
aS'4900'
p5474
aa(lp5475
S'4914'
p5476
ag5474
aa(lp5477
S'124'
p5478
ag5351
aa(lp5479
S'99'
p5480
ag5351
aa(lp5481
S'4676'
p5482
aS'4675'
p5483
aa(lp5484
S'4677'
p5485
ag5483
aa(lp5486
S'4708'
p5487
ag1955
aa(lp5488
S'4709'
p5489
ag1955
aa(lp5490
S'4844'
p5491
ag1955
aa(lp5492
S'4891'
p5493
ag4684
aa(lp5494
S'100'
p5495
ag5158
aa(lp5496
S'4707'
p5497
ag2462
aa(lp5498
S'4705'
p5499
ag4491
aa(lp5500
S'4657'
p5501
ag2462
aa(lp5502
S'4917'
p5503
aS'4920'
p5504
aa(lp5505
S'317'
p5506
aS'316'
p5507
aa(lp5508
S'4854'
p5509
ag2529
aa(lp5510
S'8303'
p5511
ag3354
aa(lp5512
S'249'
p5513
ag5030
aa(lp5514
S'4714'
p5515
ag5447
aa(lp5516
S'30'
p5517
ag5140
aa(lp5518
S'4856'
p5519
ag1504
aa(lp5520
S'10'
p5521
aS'13'
p5522
aa(lp5523
S'61'
p5524
ag5191
aa(lp5525
S'138'
p5526
ag5401
aa(lp5527
S'4637'
p5528
ag4054
aa(lp5529
S'4921'
p5530
ag5325
aa(lp5531
S'4865'
p5532
ag1504
aa(lp5533
S'4911'
p5534
ag5474
aa(lp5535
S'4906'
p5536
ag5474
aa(lp5537
S'4641'
p5538
ag1955
aa(lp5539
S'4643'
p5540
ag1955
aa(lp5541
S'4704'
p5542
ag1955
aa(lp5543
S'4846'
p5544
ag1955
aa(lp5545
S'4928'
p5546
ag1955
aa(lp5547
S'4887'
p5548
ag4684
aa(lp5549
S'4889'
p5550
ag4684
aa(lp5551
S'7958'
p5552
ag2024
aa(lp5553
S'7961'
p5554
ag2024
aa(lp5555
S'7922'
p5556
ag2024
aa(lp5557
S'4668'
p5558
ag2462
aa(lp5559
S'4655'
p5560
ag2462
aa(lp5561
S'4925'
p5562
ag5504
aa(lp5563
S'4933'
p5564
aS'4934'
p5565
aa(lp5566
S'4689'
p5567
ag5565
aa(lp5568
S'4935'
p5569
ag5565
aa(lp5570
S'4621'
p5571
ag2646
aa(lp5572
S'4623'
p5573
ag2646
aa(lp5574
S'4624'
p5575
ag2646
aa(lp5576
S'4697'
p5577
ag2646
aa(lp5578
S'28'
p5579
ag5140
aa(lp5580
S'4713'
p5581
ag4054
aa(lp5582
S'4719'
p5583
ag4054
aa(lp5584
S'4923'
p5585
ag5325
aa(lp5586
S'20'
p5587
ag5007
aa(lp5588
S'4850'
p5589
ag1501
aa(lp5590
S'4877'
p5591
ag1501
aa(lp5592
S'120'
p5593
ag5351
aa(lp5594
S'4899'
p5595
ag5474
aa(lp5596
S'4642'
p5597
ag1955
aa(lp5598
S'4892'
p5599
ag4684
aa(lp5600
S'134'
p5601
ag5158
aa(lp5602
S'7853'
p5603
ag4838
aa(lp5604
S'4669'
p5605
ag2462
aa(lp5606
S'4652'
p5607
ag2462
aa(lp5608
S'4680'
p5609
ag5565
aa(lp5610
S'4688'
p5611
ag5565
aa(lp5612
S'4667'
p5613
ag2462
aa(lp5614
S'312'
p5615
ag5507
aa(lp5616
S'8663'
p5617
ag1737
aa(lp5618
S'156'
p5619
aS'270'
p5620
aa(lp5621
S'4622'
p5622
ag2646
aa(lp5623
S'4700'
p5624
ag2646
aa(lp5625
S'75'
p5626
ag5140
aa(lp5627
S'274'
p5628
aS'273'
p5629
aa(lp5630
S'60'
p5631
ag5191
aa(lp5632
S'4886'
p5633
ag4054
aa(lp5634
S'8161'
p5635
ag405
aa(lp5636
S'8087'
p5637
ag405
aa(lp5638
S'189'
p5639
ag5079
aa(lp5640
S'4908'
p5641
ag5474
aa(lp5642
S'4910'
p5643
ag5474
aa(lp5644
S'4912'
p5645
ag5474
aa(lp5646
S'4681'
p5647
aS'4683'
p5648
aa(lp5649
S'4932'
p5650
ag5432
aa(lp5651
S'7934'
p5652
ag2024
aa(lp5653
S'306'
p5654
ag5217
aa(lp5655
S'4659'
p5656
ag2462
aa(lp5657
S'4916'
p5658
ag5504
aa(lp5659
S'4919'
p5660
ag5504
aa(lp5661
S'255'
p5662
ag5030
aa(lp5663
S'4715'
p5664
ag5447
aa(lp5665
S'4918'
p5666
ag5325
aa(lp5667
S'4875'
p5668
ag1504
aa(lp5669
S'4636'
p5670
ag4054
aa(lp5671
S'4638'
p5672
ag4054
aa(lp5673
S'4907'
p5674
ag4054
aa(lp5675
S'4866'
p5676
ag1504
aa(lp5677
S'132'
p5678
ag5351
aa(lp5679
S'7883'
p5680
ag405
aa(lp5681
S'235'
p5682
ag5048
aa(lp5683
S'4612'
p5684
ag1775
aa(lp5685
S'209'
p5686
ag5079
aa(lp5687
S'7480'
p5688
ag1876
aa(lp5689
S'4902'
p5690
ag5474
aa(lp5691
S'7292'
p5692
aS'7297'
p5693
aa(lp5694
S'147'
p5695
ag5158
aa(lp5696
S'8159'
p5697
ag1102
aa(lp5698
S'1792'
p5699
ag1289
aa(lp5700
S'1795'
p5701
ag1289
aa(lp5702
S'4646'
p5703
aS'4648'
p5704
aa(lp5705
S'4690'
p5706
ag5565
aa(lp5707
S'4644'
p5708
ag5704
aa(lp5709
S'7222'
p5710
aS'7225'
p5711
aa(lp5712
S'7510'
p5713
ag989
aa(lp5714
S'2366'
p5715
ag303
aa(lp5716
S'5949'
p5717
ag1004
aa(lp5718
S'4635'
p5719
ag5447
aa(lp5720
S'63'
p5721
ag5007
aa(lp5722
S'36'
p5723
ag5007
aa(lp5724
S'4939'
p5725
ag1902
aa(lp5726
S'243'
p5727
ag5200
aa(lp5728
S'5907'
p5729
ag2402
aa(lp5730
S'4884'
p5731
aS'4883'
p5732
aa(lp5733
S'4929'
p5734
ag1955
aa(lp5735
S'4845'
p5736
ag1955
aa(lp5737
S'4890'
p5738
ag4684
aa(lp5739
S'6275'
p5740
ag1124
aa(lp5741
S'6234'
p5742
ag4001
aa(lp5743
S'4915'
p5744
ag5504
aa(lp5745
S'4687'
p5746
ag5565
aa(lp5747
S'6819'
p5748
ag3965
aa(lp5749
S'299'
p5750
ag1253
aa(lp5751
S'7065'
p5752
ag1469
aa(lp5753
S'128'
p5754
ag5180
aa(lp5755
S'26'
p5756
ag5007
aa(lp5757
S'8022'
p5758
ag405
aa(lp5759
S'7667'
p5760
ag405
aa(lp5761
S'7727'
p5762
aS'7765'
p5763
aa(lp5764
S'7347'
p5765
aS'8388'
p5766
aa(lp5767
S'4913'
p5768
ag5474
aa(lp5769
S'5179'
p5770
ag1916
aa(lp5771
S'7971'
p5772
ag2024
aa(lp5773
S'5254'
p5774
ag164
aa(lp5775
S'7995'
p5776
ag4032
aa(lp5777
S'19'
p5778
ag5007
aa(lp5779
S'54'
p5780
ag5007
aa(lp5781
S'1680'
p5782
ag405
aa(lp5783
S'180'
p5784
ag5079
aa(lp5785
S'94'
p5786
ag5357
aa(lp5787
S'5181'
p5788
ag1916
aa(lp5789
S'5185'
p5790
ag1916
aa(lp5791
S'5814'
p5792
aS'5813'
p5793
aa(lp5794
S'5463'
p5795
aS'5464'
p5796
aa(lp5797
S'4909'
p5798
ag2643
aa(lp5799
S'4881'
p5800
ag1895
aa(lp5801
S'190'
p5802
aS'172'
p5803
aa(lp5804
S'2095'
p5805
aS'568'
p5806
aa(lp5807
S'7226'
p5808
ag928
aa(lp5809
S'4946'
p5810
ag2462
aa(lp5811
S'1384'
p5812
ag2586
aa(lp5813
S'399'
p5814
ag2646
aa(lp5815
S'8151'
p5816
ag405
aa(lp5817
S'4855'
p5818
ag928
aa(lp5819
S'7985'
p5820
ag2024
aa(lp5821
S'21'
p5822
ag5007
aa(lp5823
S'72'
p5824
ag5007
aa(lp5825
S'4874'
p5826
ag1504
aa(lp5827
S'2379'
p5828
ag405
aa(lp5829
S'7844'
p5830
ag1253
aa(lp5831
S'265'
p5832
aS'9'
aa(lp5833
S'1'
aS'141'
p5834
aa(lp5835
S'8207'
p5836
ag899
aa(lp5837
S'2277'
p5838
ag121
aa(lp5839
S'7894'
p5840
ag405
aa(lp5841
S'7177'
p5842
aS'8313'
p5843
aa(lp5844
S'7491'
p5845
aS'5713'
p5846
aa(lp5847
S'7747'
p5848
ag405
aa(lp5849
S'7755'
p5850
ag405
aa(lp5851
S'5339'
p5852
ag360
aa(lp5853
S'8046'
p5854
ag405
aa(lp5855
S'7702'
p5856
ag4575
aa(lp5857
S'74'
p5858
ag5007
aa(lp5859
S'8084'
p5860
ag3965
aa.